

HI-TECH Software PIC LITE Macro Assembler V9.83 build 10920 
                                                                                               Wed May 28 12:02:40 2014

HI-TECH Software Omniscient Code Generator (Lite mode) build 10920
     1  0000                     opt subtitle "HI-TECH Software Omniscient Code Generator (Lite mode) build 10920"
     2                           
     3                           opt pagewidth 120
     4                           
     5                           	opt lm
     6                           
     7                           	processor	16F1823
     8                           clrc	macro
     9                           	bcf	3,0
    10  0000                     	endm
    11                           clrz	macro
    12                           	bcf	3,2
    13  0000                     	endm
    14                           setc	macro
    15                           	bsf	3,0
    16  0000                     	endm
    17                           setz	macro
    18                           	bsf	3,2
    19  0000                     	endm
    20                           skipc	macro
    21                           	btfss	3,0
    22  0000                     	endm
    23                           skipz	macro
    24                           	btfss	3,2
    25  0000                     	endm
    26                           skipnc	macro
    27                           	btfsc	3,0
    28  0000                     	endm
    29                           skipnz	macro
    30                           	btfsc	3,2
    31  0000                     	endm
    32  0000                     indf	equ	0
    33  0000                     indf0	equ	0
    34  0001                     indf1	equ	1
    35  0002                     pc	equ	2
    36  0002                     pcl	equ	2
    37  0003                     status	equ	3
    38  0004                     fsr0l	equ	4
    39  0005                     fsr0h	equ	5
    40  0006                     fsr1l	equ	6
    41  0007                     fsr1h	equ	7
    42  0008                     bsr	equ	8
    43  0009                     wreg	equ	9
    44  000B                     intcon	equ	11
    45  0001                     c	equ	1
    46  0000                     z	equ	0
    47  000A                     pclath	equ	10
    48                           # 4 "D:\DVA\projects\Intelligent helmet for accident detection\programs\import\topv3\adc
                                 .c"
    49                           	psect config,class=CONFIG,delta=2 ;#
    50                           # 4 "D:\DVA\projects\Intelligent helmet for accident detection\programs\import\topv3\adc
                                 .c"
    51  8007  FFA4               	dw 0xFFFC & 0xFFE7 & 0xFFFF & 0xFFBF & 0xFFFF & 0xFFFF & 0xFFFF & 0xFFFF & 0xFFFF & 0xF
                                 FFF ;#
    52                           # 5 "D:\DVA\projects\Intelligent helmet for accident detection\programs\import\topv3\adc
                                 .c"
    53                           	psect config,class=CONFIG,delta=2 ;#
    54                           # 5 "D:\DVA\projects\Intelligent helmet for accident detection\programs\import\topv3\adc
                                 .c"
    55  8008  DEFF               	dw 0xFFFF & 0xFEFF & 0xFFFF & 0xDFFF ;#
    56                           	FNCALL	_main,_delay
    57                           	FNCALL	_main,_USART_SENDDATA
    58                           	FNCALL	_main,_ADC_CONV
    59                           	FNCALL	_main,___lwdiv
    60                           	FNCALL	_main,___lbtoft
    61                           	FNCALL	_main,_sqrt
    62                           	FNCALL	_main,___fttol
    63                           	FNCALL	_sqrt,___ftge
    64                           	FNCALL	_sqrt,___ftmul
    65                           	FNCALL	_sqrt,___ftsub
    66                           	FNCALL	___ftsub,___ftadd
    67                           	FNCALL	___lbtoft,___ftpack
    68                           	FNCALL	___ftmul,___ftpack
    69                           	FNCALL	___ftadd,___ftpack
    70                           	FNCALL	_ADC_CONV,_delay
    71                           	FNROOT	_main
    72                           	global	_adcrx
    73                           	global	_adcry
    74                           	global	_start
    75                           	global	_intdata
    76                           psect	idataBANK0,class=CODE,space=0,delta=2
    77                           global __pidataBANK0
    78  00C9                     __pidataBANK0:
    79                           	file	"D:\DVA\projects\Intelligent helmet for accident detection\programs\import\topv3\a
                                 dc.c"
    80                           	line	15
    81                           
    82                           ;initializer for _adcrx
    83  00C9  3400               	retlw	0
    84  00CA  3402               	retlw	02h
    85                           
    86                           
    87                           ;initializer for _adcry
    88  00CB  3400               	retlw	0
    89  00CC  3402               	retlw	02h
    90                           
    91                           	line	13
    92                           
    93                           ;initializer for _start
    94  00CD  3455               	retlw	055h
    95                           psect	idataBANK1,class=CODE,space=0,delta=2
    96                           global __pidataBANK1
    97  00E6                     __pidataBANK1:
    98                           	line	16
    99                           
   100                           ;initializer for _intdata
   101  00E6  3400               	retlw	0
   102  00E7  3401               	retlw	01h
   103  00E8  3404               	retlw	04h
   104  00E9  3409               	retlw	09h
   105  00EA  3410               	retlw	010h
   106  00EB  3419               	retlw	019h
   107  00EC  3424               	retlw	024h
   108  00ED  3431               	retlw	031h
   109  00EE  3440               	retlw	040h
   110  00EF  3451               	retlw	051h
   111  00F0  3464               	retlw	064h
   112  00F1  3479               	retlw	079h
   113  00F2  3490               	retlw	090h
   114  00F3  34A9               	retlw	0A9h
   115  00F4  34C4               	retlw	0C4h
   116  00F5  34E1               	retlw	0E1h
   117                           	global	_errno
   118                           	global	_ptadcrx
   119                           	global	_ptadcry
   120                           	global	_r
   121                           	global	_sd
   122                           	global	_adcrl
   123                           	global	_adcrz
   124                           	global	_adcs
   125                           	global	_add
   126                           	global	_al
   127                           	global	_alcor
   128                           	global	_diagno
   129                           	global	_h
   130                           	global	_j
   131                           	global	_k
   132                           	global	_rfr
   133                           	global	_t
   134                           	global	_x
   135                           	global	_y
   136                           	global	_INTCON
   137  000B                     _INTCON	set	11
   138                           	global	_PIR1bits
   139  0011                     _PIR1bits	set	17
   140                           	global	_PIR2bits
   141  0012                     _PIR2bits	set	18
   142                           	global	_PORTAbits
   143  000C                     _PORTAbits	set	12
   144                           	global	_PORTCbits
   145  000E                     _PORTCbits	set	14
   146                           	global	_T1CONbits
   147  0018                     _T1CONbits	set	24
   148                           	global	_CARRY
   149  0018                     _CARRY	set	24
   150                           	global	_GIE
   151  005F                     _GIE	set	95
   152                           	global	_ADCON0bits
   153  009D                     _ADCON0bits	set	157
   154                           	global	_ADCON1bits
   155  009E                     _ADCON1bits	set	158
   156                           	global	_ADRESH
   157  009C                     _ADRESH	set	156
   158                           	global	_ADRESL
   159  009B                     _ADRESL	set	155
   160                           	global	_OSCCON
   161  0099                     _OSCCON	set	153
   162                           	global	_OSCTUNE
   163  0098                     _OSCTUNE	set	152
   164                           	global	_PIE2
   165  0092                     _PIE2	set	146
   166                           	global	_TRISA
   167  008C                     _TRISA	set	140
   168                           	global	_TRISC
   169  008E                     _TRISC	set	142
   170                           	global	_APFCON
   171  011D                     _APFCON	set	285
   172                           	global	_CM2CON0
   173  0113                     _CM2CON0	set	275
   174                           	global	_CM2CON0bits
   175  0113                     _CM2CON0bits	set	275
   176                           	global	_CM2CON1
   177  0114                     _CM2CON1	set	276
   178                           	global	_EEADR
   179  0191                     _EEADR	set	401
   180                           	global	_ANSELA
   181  018C                     _ANSELA	set	396
   182                           	global	_ANSELC
   183  018E                     _ANSELC	set	398
   184                           	global	_BAUDCONbits
   185  019F                     _BAUDCONbits	set	415
   186                           	global	_EECON1
   187  0195                     _EECON1	set	405
   188                           	global	_EECON2
   189  0196                     _EECON2	set	406
   190                           	global	_EEDATA
   191  0193                     _EEDATA	set	403
   192                           	global	_RCSTAbits
   193  019D                     _RCSTAbits	set	413
   194                           	global	_SPBRGH
   195  019C                     _SPBRGH	set	412
   196                           	global	_SPBRGL
   197  019B                     _SPBRGL	set	411
   198                           	global	_TXREG
   199  019A                     _TXREG	set	410
   200                           	global	_TXSTAbits
   201  019E                     _TXSTAbits	set	414
   202                           	global	_RD
   203  0CA8                     _RD	set	3240
   204                           	global	_WR
   205  0CA9                     _WR	set	3241
   206                           	global	_WREN
   207  0CAA                     _WREN	set	3242
   208                           	file	"adc.as"
   209                           	line	#
   210                           psect cinit,class=CODE,delta=2
   211                           global start_initialization
   212  0141                     start_initialization:
   213                           
   214                           psect	bssBANK0,class=BANK0,space=1
   215                           global __pbssBANK0
   216  0053                     __pbssBANK0:
   217  0053                     _errno:
   218  0053                            ds      2
   219                           
   220  0055                     _ptadcrx:
   221  0055                            ds      2
   222                           
   223  0057                     _ptadcry:
   224  0057                            ds      2
   225                           
   226  0059                     _r:
   227  0059                            ds      2
   228                           
   229  005B                     _sd:
   230  005B                            ds      2
   231                           
   232  005D                     _adcrl:
   233  005D                            ds      1
   234                           
   235  005E                     _adcrz:
   236  005E                            ds      1
   237                           
   238  005F                     _adcs:
   239  005F                            ds      1
   240                           
   241  0060                     _add:
   242  0060                            ds      1
   243                           
   244  0061                     _al:
   245  0061                            ds      1
   246                           
   247  0062                     _alcor:
   248  0062                            ds      1
   249                           
   250  0063                     _diagno:
   251  0063                            ds      1
   252                           
   253  0064                     _h:
   254  0064                            ds      1
   255                           
   256  0065                     _j:
   257  0065                            ds      1
   258                           
   259  0066                     _k:
   260  0066                            ds      1
   261                           
   262  0067                     _rfr:
   263  0067                            ds      1
   264                           
   265  0068                     _t:
   266  0068                            ds      1
   267                           
   268  0069                     _x:
   269  0069                            ds      1
   270                           
   271  006A                     _y:
   272  006A                            ds      1
   273                           
   274                           psect	dataBANK0,class=BANK0,space=1
   275                           global __pdataBANK0
   276  006B                     __pdataBANK0:
   277                           	file	"D:\DVA\projects\Intelligent helmet for accident detection\programs\import\topv3\a
                                 dc.c"
   278                           	line	15
   279  006B                     _adcrx:
   280  006B                            ds      2
   281                           
   282                           psect	dataBANK0
   283                           	file	"D:\DVA\projects\Intelligent helmet for accident detection\programs\import\topv3\a
                                 dc.c"
   284  006D                     _adcry:
   285  006D                            ds      2
   286                           
   287                           psect	dataBANK0
   288                           	file	"D:\DVA\projects\Intelligent helmet for accident detection\programs\import\topv3\a
                                 dc.c"
   289                           	line	13
   290  006F                     _start:
   291  006F                            ds      1
   292                           
   293                           psect	dataBANK1,class=BANK1,space=1
   294                           global __pdataBANK1
   295  00A0                     __pdataBANK1:
   296                           	file	"D:\DVA\projects\Intelligent helmet for accident detection\programs\import\topv3\a
                                 dc.c"
   297                           	line	16
   298  00A0                     _intdata:
   299  00A0                            ds      16
   300                           
   301                           psect clrtext,class=CODE,delta=2
   302                           global clear_ram
   303                           ;	Called with FSR0 containing the base address, and
   304                           ;	WREG with the size to clear
   305  00D4                     clear_ram:
   306  00D4  0064               	clrwdt			;clear the watchdog before getting into this loop
   307  00D5                     clrloop:
   308  00D5  0180               	clrf	indf0		;clear RAM location pointed to by FSR
   309  00D6  3101               	addfsr	0,1
   310  00D7  0B89               	decfsz wreg		;Have we reached the end of clearing yet?
   311  00D8  28D5               	goto clrloop	;have we reached the end yet?
   312  00D9  3400               	retlw	0		;all done for this memory range, return
   313                           ; Clear objects allocated to BANK0
   314                           psect cinit,class=CODE,delta=2
   315                           	global __pbssBANK0
   316  0141  3053               	movlw	low(__pbssBANK0)
   317  0142  0084               	movwf	fsr0l
   318  0143  3000               	movlw	high(__pbssBANK0)
   319  0144  0085               	movwf	fsr0h
   320  0145  3018               	movlw	018h
   321  0146  3180  20D4  3181   	fcall	clear_ram
   322                           psect inittext,class=CODE,delta=2
   323                           global init_ram,btemp
   324  00CE                     init_ram:
   325  00CE  00FE               	movwf btemp,f
   326  00CF                     initloop:
   327  00CF  0012               	moviw fsr0++
   328  00D0  001E               	movwi fsr1++
   329  00D1  0BFE               	decfsz btemp
   330  00D2  28CF               	goto initloop
   331  00D3  3400               	retlw 0
   332                           ; Initialize objects allocated to BANK0
   333                           	global __pidataBANK0,__pdataBANK0
   334                           psect cinit,class=CODE,delta=2
   335  0149  30C9               	movlw low(__pidataBANK0)
   336  014A  0084               	movwf fsr0l
   337  014B  3080               	movlw high(__pidataBANK0)|80h
   338  014C  0085               	movwf fsr0h
   339  014D  306B               	movlw low(__pdataBANK0)
   340  014E  0086               	movwf fsr1l
   341  014F  3000               	movlw high(__pdataBANK0)
   342  0150  0087               	movwf fsr1h
   343  0151  3005               	movlw 05h
   344  0152  3180  20CE  3181   	fcall init_ram
   345                           ; Initialize objects allocated to BANK1
   346                           	global __pidataBANK1,__pdataBANK1
   347                           psect cinit,class=CODE,delta=2
   348  0155  30E6               	movlw low(__pidataBANK1)
   349  0156  0084               	movwf fsr0l
   350  0157  3080               	movlw high(__pidataBANK1)|80h
   351  0158  0085               	movwf fsr0h
   352  0159  30A0               	movlw low(__pdataBANK1)
   353  015A  0086               	movwf fsr1l
   354  015B  3000               	movlw high(__pdataBANK1)
   355  015C  0087               	movwf fsr1h
   356  015D  3010               	movlw 010h
   357  015E  3180  20CE  3181   	fcall init_ram
   358                           psect cinit,class=CODE,delta=2
   359                           global end_of_initialization
   360                           
   361                           ;End of C runtime variable initialization code
   362                           
   363  0161                     end_of_initialization:
   364  0161  0020               movlb 0
   365  0162  2E86               ljmp _main	;jump to C main() function
   366                           psect	cstackCOMMON,class=COMMON,space=1
   367                           global __pcstackCOMMON
   368  0070                     __pcstackCOMMON:
   369                           	global	?_delay
   370  0070                     ?_delay:	; 0 bytes @ 0x0
   371                           	global	?_USART_SENDDATA
   372  0070                     ?_USART_SENDDATA:	; 0 bytes @ 0x0
   373                           	global	??_USART_SENDDATA
   374  0070                     ??_USART_SENDDATA:	; 0 bytes @ 0x0
   375                           	global	?_ADC_CONV
   376  0070                     ?_ADC_CONV:	; 0 bytes @ 0x0
   377                           	global	?_main
   378  0070                     ?_main:	; 0 bytes @ 0x0
   379                           	global	?___ftge
   380  0070                     ?___ftge:	; 1 bit 
   381                           	global	?___lwdiv
   382  0070                     ?___lwdiv:	; 2 bytes @ 0x0
   383                           	global	?___ftpack
   384  0070                     ?___ftpack:	; 3 bytes @ 0x0
   385                           	global	USART_SENDDATA@udata
   386  0070                     USART_SENDDATA@udata:	; 1 bytes @ 0x0
   387                           	global	delay@d
   388  0070                     delay@d:	; 2 bytes @ 0x0
   389                           	global	___lwdiv@divisor
   390  0070                     ___lwdiv@divisor:	; 2 bytes @ 0x0
   391                           	global	___ftge@ff1
   392  0070                     ___ftge@ff1:	; 3 bytes @ 0x0
   393                           	global	___ftpack@arg
   394  0070                     ___ftpack@arg:	; 3 bytes @ 0x0
   395  0070                     	ds	2
   396                           	global	??_delay
   397  0072                     ??_delay:	; 0 bytes @ 0x2
   398                           	global	delay@i
   399  0072                     delay@i:	; 2 bytes @ 0x2
   400                           	global	___lwdiv@dividend
   401  0072                     ___lwdiv@dividend:	; 2 bytes @ 0x2
   402  0072                     	ds	1
   403                           	global	___ftpack@exp
   404  0073                     ___ftpack@exp:	; 1 bytes @ 0x3
   405                           	global	___ftge@ff2
   406  0073                     ___ftge@ff2:	; 3 bytes @ 0x3
   407  0073                     	ds	1
   408                           	global	??_ADC_CONV
   409  0074                     ??_ADC_CONV:	; 0 bytes @ 0x4
   410                           	global	??___lwdiv
   411  0074                     ??___lwdiv:	; 0 bytes @ 0x4
   412                           	global	___ftpack@sign
   413  0074                     ___ftpack@sign:	; 1 bytes @ 0x4
   414  0074                     	ds	1
   415                           	global	??___ftpack
   416  0075                     ??___ftpack:	; 0 bytes @ 0x5
   417                           	global	___lwdiv@quotient
   418  0075                     ___lwdiv@quotient:	; 2 bytes @ 0x5
   419  0075                     	ds	1
   420                           	global	??___ftge
   421  0076                     ??___ftge:	; 0 bytes @ 0x6
   422  0076                     	ds	1
   423                           	global	___lwdiv@counter
   424  0077                     ___lwdiv@counter:	; 1 bytes @ 0x7
   425  0077                     	ds	2
   426                           	global	?___fttol
   427  0079                     ?___fttol:	; 4 bytes @ 0x9
   428                           	global	___fttol@f1
   429  0079                     ___fttol@f1:	; 3 bytes @ 0x9
   430  0079                     	ds	4
   431                           	global	??___ftsub
   432  007D                     ??___ftsub:	; 0 bytes @ 0xD
   433                           	global	___lbtoft@c
   434  007D                     ___lbtoft@c:	; 1 bytes @ 0xD
   435  007D                     	ds	1
   436                           psect	cstackBANK0,class=BANK0,space=1
   437                           global __pcstackBANK0
   438  0020                     __pcstackBANK0:
   439                           	global	??___fttol
   440  0020                     ??___fttol:	; 0 bytes @ 0x0
   441  0020                     	ds	4
   442                           	global	___fttol@sign1
   443  0024                     ___fttol@sign1:	; 1 bytes @ 0x4
   444  0024                     	ds	1
   445                           	global	___fttol@lval
   446  0025                     ___fttol@lval:	; 4 bytes @ 0x5
   447  0025                     	ds	4
   448                           	global	___fttol@exp1
   449  0029                     ___fttol@exp1:	; 1 bytes @ 0x9
   450  0029                     	ds	1
   451                           	global	?___ftadd
   452  002A                     ?___ftadd:	; 3 bytes @ 0xA
   453                           	global	?___ftmul
   454  002A                     ?___ftmul:	; 3 bytes @ 0xA
   455                           	global	?___lbtoft
   456  002A                     ?___lbtoft:	; 3 bytes @ 0xA
   457                           	global	___ftadd@f1
   458  002A                     ___ftadd@f1:	; 3 bytes @ 0xA
   459                           	global	___ftmul@f1
   460  002A                     ___ftmul@f1:	; 3 bytes @ 0xA
   461  002A                     	ds	3
   462                           	global	??___lbtoft
   463  002D                     ??___lbtoft:	; 0 bytes @ 0xD
   464                           	global	___ftadd@f2
   465  002D                     ___ftadd@f2:	; 3 bytes @ 0xD
   466                           	global	___ftmul@f2
   467  002D                     ___ftmul@f2:	; 3 bytes @ 0xD
   468  002D                     	ds	3
   469                           	global	??___ftadd
   470  0030                     ??___ftadd:	; 0 bytes @ 0x10
   471                           	global	??___ftmul
   472  0030                     ??___ftmul:	; 0 bytes @ 0x10
   473  0030                     	ds	4
   474                           	global	___ftadd@sign
   475  0034                     ___ftadd@sign:	; 1 bytes @ 0x14
   476                           	global	___ftmul@exp
   477  0034                     ___ftmul@exp:	; 1 bytes @ 0x14
   478  0034                     	ds	1
   479                           	global	___ftadd@exp2
   480  0035                     ___ftadd@exp2:	; 1 bytes @ 0x15
   481                           	global	___ftmul@f3_as_product
   482  0035                     ___ftmul@f3_as_product:	; 3 bytes @ 0x15
   483  0035                     	ds	1
   484                           	global	___ftadd@exp1
   485  0036                     ___ftadd@exp1:	; 1 bytes @ 0x16
   486  0036                     	ds	1
   487                           	global	?___ftsub
   488  0037                     ?___ftsub:	; 3 bytes @ 0x17
   489                           	global	___ftsub@f2
   490  0037                     ___ftsub@f2:	; 3 bytes @ 0x17
   491  0037                     	ds	1
   492                           	global	___ftmul@cntr
   493  0038                     ___ftmul@cntr:	; 1 bytes @ 0x18
   494  0038                     	ds	1
   495                           	global	___ftmul@sign
   496  0039                     ___ftmul@sign:	; 1 bytes @ 0x19
   497  0039                     	ds	1
   498                           	global	___ftsub@f1
   499  003A                     ___ftsub@f1:	; 3 bytes @ 0x1A
   500  003A                     	ds	3
   501                           	global	?_sqrt
   502  003D                     ?_sqrt:	; 3 bytes @ 0x1D
   503                           	global	sqrt@y
   504  003D                     sqrt@y:	; 3 bytes @ 0x1D
   505  003D                     	ds	3
   506                           	global	??_sqrt
   507  0040                     ??_sqrt:	; 0 bytes @ 0x20
   508  0040                     	ds	3
   509                           	global	sqrt@og
   510  0043                     sqrt@og:	; 3 bytes @ 0x23
   511  0043                     	ds	3
   512                           	global	sqrt@z
   513  0046                     sqrt@z:	; 3 bytes @ 0x26
   514  0046                     	ds	3
   515                           	global	sqrt@i
   516  0049                     sqrt@i:	; 1 bytes @ 0x29
   517  0049                     	ds	1
   518                           	global	sqrt@q
   519  004A                     sqrt@q:	; 3 bytes @ 0x2A
   520  004A                     	ds	3
   521                           	global	sqrt@x
   522  004D                     sqrt@x:	; 3 bytes @ 0x2D
   523  004D                     	ds	3
   524                           	global	??_main
   525  0050                     ??_main:	; 0 bytes @ 0x30
   526  0050                     	ds	3
   527 ;;Data sizes: Strings 0, constant 0, data 21, bss 24, persistent 0 stack 0
   528 ;;Auto spaces:   Size  Autos    Used
   529 ;; COMMON          14     14      14
   530 ;; BANK0           80     51      80
   531 ;; BANK1           32      0      16
   532                           
   533 ;;
   534 ;; Pointer list with targets:
   535                           
   536 ;; ?___lbtoft	float  size(1) Largest target is 0
   537 ;;
   538 ;; ?___ftadd	float  size(1) Largest target is 0
   539 ;;
   540 ;; ?___ftpack	float  size(1) Largest target is 0
   541 ;;
   542 ;; ?___ftsub	float  size(1) Largest target is 0
   543 ;;
   544 ;; ?___ftmul	float  size(1) Largest target is 0
   545 ;;
   546 ;; ?___fttol	long  size(1) Largest target is 0
   547 ;;
   548 ;; ?_sqrt	long  size(1) Largest target is 0
   549 ;;
   550 ;; ?___lwdiv	unsigned int  size(1) Largest target is 0
   551 ;;
   552                           
   553                           
   554 ;;
   555 ;; Critical Paths under _main in COMMON
   556 ;;
   557 ;;   _main->___lbtoft
   558 ;;   _sqrt->___lbtoft
   559 ;;   ___ftsub->___fttol
   560 ;;   ___lbtoft->___fttol
   561 ;;   ___ftmul->___fttol
   562 ;;   ___ftadd->___fttol
   563 ;;   _ADC_CONV->_delay
   564 ;;   ___fttol->___ftge
   565 ;;
   566 ;; Critical Paths under _main in BANK0
   567 ;;
   568 ;;   _main->_sqrt
   569 ;;   _sqrt->___ftsub
   570 ;;   ___ftsub->___ftadd
   571 ;;   ___lbtoft->___fttol
   572 ;;   ___ftmul->___fttol
   573 ;;   ___ftadd->___fttol
   574 ;;
   575 ;; Critical Paths under _main in BANK1
   576 ;;
   577 ;;   None.
   578                           
   579 ;;
   580 ;;Main: autosize = 0, tempsize = 3, incstack = 0, save=0
   581 ;;
   582                           
   583 ;;
   584 ;;Call Graph Tables:
   585 ;;
   586 ;; ---------------------------------------------------------------------------------
   587 ;; (Depth) Function   	        Calls       Base Space   Used Autos Params    Refs
   588 ;; ---------------------------------------------------------------------------------
   589 ;; (0) _main                                                 3     3      0    2909
   590 ;;                                             48 BANK0      3     3      0
   591 ;;                              _delay
   592 ;;                     _USART_SENDDATA
   593 ;;                           _ADC_CONV
   594 ;;                            ___lwdiv
   595 ;;                           ___lbtoft
   596 ;;                               _sqrt
   597 ;;                            ___fttol
   598 ;; ---------------------------------------------------------------------------------
   599 ;; (1) _sqrt                                                19    16      3    2150
   600 ;;                                             29 BANK0     19    16      3
   601 ;;                             ___ftge
   602 ;;                            ___ftmul
   603 ;;                            ___ftsub
   604 ;;                           ___lbtoft (ARG)
   605 ;;                            ___fttol (ARG)
   606 ;; ---------------------------------------------------------------------------------
   607 ;; (2) ___ftsub                                              6     0      6    1094
   608 ;;                                             23 BANK0      6     0      6
   609 ;;                            ___ftadd
   610 ;;                            ___fttol (ARG)
   611 ;; ---------------------------------------------------------------------------------
   612 ;; (1) ___lbtoft                                             8     5      3     231
   613 ;;                                             13 COMMON     1     1      0
   614 ;;                                             10 BANK0      7     4      3
   615 ;;                           ___ftpack
   616 ;;                            ___fttol (ARG)
   617 ;; ---------------------------------------------------------------------------------
   618 ;; (2) ___ftmul                                             16    10      6     535
   619 ;;                                             10 BANK0     16    10      6
   620 ;;                           ___ftpack
   621 ;;                            ___fttol (ARG)
   622 ;; ---------------------------------------------------------------------------------
   623 ;; (3) ___ftadd                                             13     7      6    1049
   624 ;;                                             10 BANK0     13     7      6
   625 ;;                           ___ftpack
   626 ;;                            ___fttol (ARG)
   627 ;; ---------------------------------------------------------------------------------
   628 ;; (1) _ADC_CONV                                             4     4      0      46
   629 ;;                                              4 COMMON     4     4      0
   630 ;;                              _delay
   631 ;; ---------------------------------------------------------------------------------
   632 ;; (2) ___ftge                                               9     3      6     136
   633 ;;                                              0 COMMON     9     3      6
   634 ;; ---------------------------------------------------------------------------------
   635 ;; (1) ___fttol                                             14    10      4     252
   636 ;;                                              9 COMMON     4     0      4
   637 ;;                                              0 BANK0     10    10      0
   638 ;;                             ___ftge (ARG)
   639 ;;                           ___ftpack (ARG)
   640 ;; ---------------------------------------------------------------------------------
   641 ;; (4) ___ftpack                                             8     3      5     209
   642 ;;                                              0 COMMON     8     3      5
   643 ;; ---------------------------------------------------------------------------------
   644 ;; (1) ___lwdiv                                              8     4      4     162
   645 ;;                                              0 COMMON     8     4      4
   646 ;; ---------------------------------------------------------------------------------
   647 ;; (1) _USART_SENDDATA                                       1     1      0      22
   648 ;;                                              0 COMMON     1     1      0
   649 ;; ---------------------------------------------------------------------------------
   650 ;; (2) _delay                                                4     2      2      46
   651 ;;                                              0 COMMON     4     2      2
   652 ;; ---------------------------------------------------------------------------------
   653 ;; Estimated maximum stack depth 4
   654 ;; ---------------------------------------------------------------------------------
   655                           
   656 ;; Call Graph Graphs:
   657                           
   658 ;; _main (ROOT)
   659 ;;   _delay
   660 ;;   _USART_SENDDATA
   661 ;;   _ADC_CONV
   662 ;;     _delay
   663 ;;   ___lwdiv
   664 ;;   ___lbtoft
   665 ;;     ___ftpack
   666 ;;     ___fttol (ARG)
   667 ;;       ___ftge (ARG)
   668 ;;       ___ftpack (ARG)
   669 ;;   _sqrt
   670 ;;     ___ftge
   671 ;;     ___ftmul
   672 ;;       ___ftpack
   673 ;;       ___fttol (ARG)
   674 ;;         ___ftge (ARG)
   675 ;;         ___ftpack (ARG)
   676 ;;     ___ftsub
   677 ;;       ___ftadd
   678 ;;         ___ftpack
   679 ;;         ___fttol (ARG)
   680 ;;           ___ftge (ARG)
   681 ;;           ___ftpack (ARG)
   682 ;;       ___fttol (ARG)
   683 ;;         ___ftge (ARG)
   684 ;;         ___ftpack (ARG)
   685 ;;     ___lbtoft (ARG)
   686 ;;       ___ftpack
   687 ;;       ___fttol (ARG)
   688 ;;         ___ftge (ARG)
   689 ;;         ___ftpack (ARG)
   690 ;;     ___fttol (ARG)
   691 ;;       ___ftge (ARG)
   692 ;;       ___ftpack (ARG)
   693 ;;   ___fttol
   694 ;;     ___ftge (ARG)
   695 ;;     ___ftpack (ARG)
   696 ;;
   697                           
   698 ;; Address spaces:
   699                           
   700 ;;Name               Size   Autos  Total    Cost      Usage
   701 ;;BIGRAM              70      0       0       0        0.0%
   702 ;;EEDATA             100      0       0       0        0.0%
   703 ;;NULL                 0      0       0       0        0.0%
   704 ;;CODE                 0      0       0       0        0.0%
   705 ;;BITCOMMON            E      0       0       1        0.0%
   706 ;;BITSFR0              0      0       0       1        0.0%
   707 ;;SFR0                 0      0       0       1        0.0%
   708 ;;COMMON               E      E       E       2      100.0%
   709 ;;BITSFR1              0      0       0       2        0.0%
   710 ;;SFR1                 0      0       0       2        0.0%
   711 ;;BITSFR2              0      0       0       3        0.0%
   712 ;;SFR2                 0      0       0       3        0.0%
   713 ;;STACK                0      0       4       3        0.0%
   714 ;;BITSFR3              0      0       0       4        0.0%
   715 ;;SFR3                 0      0       0       4        0.0%
   716 ;;ABS                  0      0      6E       4        0.0%
   717 ;;BITBANK0            50      0       0       5        0.0%
   718 ;;BITSFR4              0      0       0       5        0.0%
   719 ;;SFR4                 0      0       0       5        0.0%
   720 ;;BANK0               50     33      50       6      100.0%
   721 ;;BITSFR5              0      0       0       6        0.0%
   722 ;;SFR5                 0      0       0       6        0.0%
   723 ;;BITBANK1            20      0       0       7        0.0%
   724 ;;BITSFR6              0      0       0       7        0.0%
   725 ;;SFR6                 0      0       0       7        0.0%
   726 ;;BANK1               20      0      10       8       50.0%
   727 ;;BITSFR7              0      0       0       8        0.0%
   728 ;;SFR7                 0      0       0       8        0.0%
   729 ;;BITSFR8              0      0       0       9        0.0%
   730 ;;SFR8                 0      0       0       9        0.0%
   731 ;;DATA                 0      0      72       9        0.0%
   732 ;;BITSFR9              0      0       0      10        0.0%
   733 ;;SFR9                 0      0       0      10        0.0%
   734 ;;BITSFR10             0      0       0      11        0.0%
   735 ;;SFR10                0      0       0      11        0.0%
   736 ;;BITSFR11             0      0       0      12        0.0%
   737 ;;SFR11                0      0       0      12        0.0%
   738 ;;BITSFR12             0      0       0      13        0.0%
   739 ;;SFR12                0      0       0      13        0.0%
   740 ;;BITSFR13             0      0       0      14        0.0%
   741 ;;SFR13                0      0       0      14        0.0%
   742 ;;BITSFR14             0      0       0      15        0.0%
   743 ;;SFR14                0      0       0      15        0.0%
   744 ;;BITSFR15             0      0       0      16        0.0%
   745 ;;SFR15                0      0       0      16        0.0%
   746 ;;BITSFR16             0      0       0      17        0.0%
   747 ;;SFR16                0      0       0      17        0.0%
   748 ;;BITSFR17             0      0       0      18        0.0%
   749 ;;SFR17                0      0       0      18        0.0%
   750 ;;BITSFR18             0      0       0      19        0.0%
   751 ;;SFR18                0      0       0      19        0.0%
   752 ;;BITSFR19             0      0       0      20        0.0%
   753 ;;SFR19                0      0       0      20        0.0%
   754 ;;BITSFR20             0      0       0      21        0.0%
   755 ;;SFR20                0      0       0      21        0.0%
   756 ;;BITSFR21             0      0       0      22        0.0%
   757 ;;SFR21                0      0       0      22        0.0%
   758 ;;BITSFR22             0      0       0      23        0.0%
   759 ;;SFR22                0      0       0      23        0.0%
   760 ;;BITSFR23             0      0       0      24        0.0%
   761 ;;SFR23                0      0       0      24        0.0%
   762 ;;BITSFR24             0      0       0      25        0.0%
   763 ;;SFR24                0      0       0      25        0.0%
   764 ;;BITSFR25             0      0       0      26        0.0%
   765 ;;SFR25                0      0       0      26        0.0%
   766 ;;BITSFR26             0      0       0      27        0.0%
   767 ;;SFR26                0      0       0      27        0.0%
   768 ;;BITSFR27             0      0       0      28        0.0%
   769 ;;SFR27                0      0       0      28        0.0%
   770 ;;BITSFR28             0      0       0      29        0.0%
   771 ;;SFR28                0      0       0      29        0.0%
   772 ;;BITSFR29             0      0       0      30        0.0%
   773 ;;SFR29                0      0       0      30        0.0%
   774 ;;BITSFR30             0      0       0      31        0.0%
   775 ;;SFR30                0      0       0      31        0.0%
   776 ;;BITSFR31             0      0       0      32        0.0%
   777 ;;SFR31                0      0       0      32        0.0%
   778                           
   779                           	global	_main
   780                           psect	maintext,global,class=CODE,delta=2
   781                           global __pmaintext
   782  0686                     __pmaintext:
   783                           
   784 ;; *************** function _main *****************
   785 ;; Defined at:
   786 ;;		line 19 in file "D:\DVA\projects\Intelligent helmet for accident detection\programs\import\topv3\adc.c"
   787 ;; Parameters:    Size  Location     Type
   788 ;;		None
   789 ;; Auto vars:     Size  Location     Type
   790 ;;		None
   791 ;; Return value:  Size  Location     Type
   792 ;;		None               void
   793 ;; Registers used:
   794 ;;		wreg, fsr0l, fsr0h, fsr1l, fsr1h, status,2, status,0, btemp+1, pclath, cstack
   795 ;; Tracked objects:
   796 ;;		On entry : 17F/0
   797 ;;		On exit  : 0/0
   798 ;;		Unchanged: 0/0
   799 ;; Data sizes:     COMMON   BANK0   BANK1
   800 ;;      Params:         0       0       0
   801 ;;      Locals:         0       0       0
   802 ;;      Temps:          0       3       0
   803 ;;      Totals:         0       3       0
   804 ;;Total ram usage:        3 bytes
   805 ;; Hardware stack levels required when called:    4
   806 ;; This function calls:
   807 ;;		_delay
   808 ;;		_USART_SENDDATA
   809 ;;		_ADC_CONV
   810 ;;		___lwdiv
   811 ;;		___lbtoft
   812 ;;		_sqrt
   813 ;;		___fttol
   814 ;; This function is called by:
   815 ;;		Startup code after reset
   816 ;; This function uses a non-reentrant model
   817 ;;
   818                           psect	maintext
   819                           	file	"D:\DVA\projects\Intelligent helmet for accident detection\programs\import\topv3\a
                                 dc.c"
   820                           	line	19
   821                           	global	__size_of_main
   822  017A                     	__size_of_main	equ	__end_of_main-_main
   823                           	
   824  0686                     _main:	
   825                           	opt	stack 12
   826                           ; Regs used in _main: [allreg]
   827                           	line	22
   828                           	
   829  0686                     l4768:	
   830                           ;adc.c: 22: OSCCON = 0x7B;
   831  0686  307B               	movlw	(07Bh)
   832  0687  0021               	movlb 1	; select bank1
   833  0688  0099               	movwf	(153)^080h	;volatile
   834                           	line	23
   835                           	
   836  0689                     l4770:	
   837                           ;adc.c: 23: OSCTUNE = 0x00;
   838  0689  0198               	clrf	(152)^080h	;volatile
   839                           	line	26
   840                           	
   841  068A                     l4772:	
   842                           ;adc.c: 26: APFCON=0X00;
   843  068A  0022               	movlb 2	; select bank2
   844  068B  019D               	clrf	(285)^0100h	;volatile
   845                           	line	27
   846                           ;adc.c: 27: INTCON = 0XC0;
   847  068C  30C0               	movlw	(0C0h)
   848  068D  008B               	movwf	(11)	;volatile
   849                           	line	29
   850                           ;adc.c: 29: TRISC=0x0D;
   851  068E  300D               	movlw	(0Dh)
   852  068F  0021               	movlb 1	; select bank1
   853  0690  008E               	movwf	(142)^080h	;volatile
   854                           	line	30
   855                           ;adc.c: 30: TRISA=0x3F;
   856  0691  303F               	movlw	(03Fh)
   857  0692  008C               	movwf	(140)^080h	;volatile
   858                           	line	33
   859                           ;adc.c: 33: ANSELA = 0x14;
   860  0693  3014               	movlw	(014h)
   861  0694  0023               	movlb 3	; select bank3
   862  0695  008C               	movwf	(396)^0180h	;volatile
   863                           	line	34
   864                           ;adc.c: 34: ANSELC = 0x05;
   865  0696  3005               	movlw	(05h)
   866  0697  008E               	movwf	(398)^0180h	;volatile
   867                           	line	37
   868                           	
   869  0698                     l4774:	
   870                           ;adc.c: 37: SPBRGH = 0X00;
   871  0698  019C               	clrf	(412)^0180h	;volatile
   872                           	line	38
   873                           	
   874  0699                     l4776:	
   875                           ;adc.c: 38: SPBRGL = 25;
   876  0699  3019               	movlw	(019h)
   877  069A  009B               	movwf	(411)^0180h	;volatile
   878                           	line	39
   879                           	
   880  069B                     l4778:	
   881                           ;adc.c: 39: TXSTAbits.BRGH=0;
   882  069B  111E               	bcf	(414)^0180h,2	;volatile
   883                           	line	40
   884                           	
   885  069C                     l4780:	
   886                           ;adc.c: 40: BAUDCONbits.BRG16=0;
   887  069C  119F               	bcf	(415)^0180h,3	;volatile
   888                           	line	41
   889                           	
   890  069D                     l4782:	
   891                           ;adc.c: 41: TXSTAbits.SYNC=0;
   892  069D  121E               	bcf	(414)^0180h,4	;volatile
   893                           	line	42
   894                           	
   895  069E                     l4784:	
   896                           ;adc.c: 42: RCSTAbits.SPEN=1;
   897  069E  179D               	bsf	(413)^0180h,7	;volatile
   898                           	line	43
   899                           	
   900  069F                     l4786:	
   901                           ;adc.c: 43: TXSTAbits.TX9=0;
   902  069F  131E               	bcf	(414)^0180h,6	;volatile
   903                           	line	44
   904                           	
   905  06A0                     l4788:	
   906                           ;adc.c: 44: TXSTAbits.SENDB=0;
   907  06A0  119E               	bcf	(414)^0180h,3	;volatile
   908                           	line	45
   909                           	
   910  06A1                     l4790:	
   911                           ;adc.c: 45: RCSTAbits.CREN=0;
   912  06A1  121D               	bcf	(413)^0180h,4	;volatile
   913                           	line	46
   914                           	
   915  06A2                     l4792:	
   916                           ;adc.c: 46: BAUDCONbits.SCKP=0;
   917  06A2  121F               	bcf	(415)^0180h,4	;volatile
   918                           	line	47
   919                           	
   920  06A3                     l4794:	
   921                           ;adc.c: 47: PIR1bits.TXIF=0;
   922  06A3  0020               	movlb 0	; select bank0
   923  06A4  1211               	bcf	(17),4	;volatile
   924                           	line	48
   925                           	
   926  06A5                     l4796:	
   927                           ;adc.c: 48: TXSTAbits.TXEN=1;
   928  06A5  0023               	movlb 3	; select bank3
   929  06A6  169E               	bsf	(414)^0180h,5	;volatile
   930                           	line	51
   931                           	
   932  06A7                     l4798:	
   933                           ;adc.c: 51: ADCON1bits.ADCS=5;
   934  06A7  0021               	movlb 1	; select bank1
   935  06A8  081E               	movf	(158)^080h,w	;volatile
   936  06A9  398F               	andlw	not (((1<<3)-1)<<4)
   937  06AA  3850               	iorlw	(05h & ((1<<3)-1))<<4
   938  06AB  009E               	movwf	(158)^080h	;volatile
   939                           	line	52
   940                           	
   941  06AC                     l4800:	
   942                           ;adc.c: 52: ADCON1bits.ADPREF=0;
   943  06AC  30FC               	movlw	((0 & ((1<<2)-1))<<0)|not (((1<<2)-1)<<0)
   944  06AD  059E               	andwf	(158)^080h,f	;volatile
   945                           	line	53
   946                           	
   947  06AE                     l4802:	
   948                           ;adc.c: 53: ADCON1bits.ADFM=1;
   949  06AE  179E               	bsf	(158)^080h,7	;volatile
   950                           	line	57
   951                           	
   952  06AF                     l4804:	
   953                           ;adc.c: 57: CM2CON0= 0x90;
   954  06AF  3090               	movlw	(090h)
   955  06B0  0022               	movlb 2	; select bank2
   956  06B1  0093               	movwf	(275)^0100h	;volatile
   957                           	line	58
   958                           	
   959  06B2                     l4806:	
   960                           ;adc.c: 58: PIE2 = 0X40;
   961  06B2  3040               	movlw	(040h)
   962  06B3  0021               	movlb 1	; select bank1
   963  06B4  0092               	movwf	(146)^080h	;volatile
   964                           	line	59
   965                           	
   966  06B5                     l4808:	
   967                           ;adc.c: 59: CM2CON1= 0X02;
   968  06B5  3002               	movlw	(02h)
   969  06B6  0022               	movlb 2	; select bank2
   970  06B7  0094               	movwf	(276)^0100h	;volatile
   971                           	line	61
   972                           	
   973  06B8                     l4810:	
   974                           ;adc.c: 61: for(k=0;k<2;k++)
   975  06B8  0020               	movlb 0	; select bank0
   976  06B9  01E6               	clrf	(_k)
   977                           	
   978  06BA                     l4812:	
   979  06BA  3002               	movlw	(02h)
   980  06BB  0266               	subwf	(_k),w
   981  06BC  1C03               	skipc
   982  06BD  2EBF               	goto	u3321
   983  06BE  2EC0               	goto	u3320
   984  06BF                     u3321:
   985  06BF  2EC2               	goto	l4816
   986  06C0                     u3320:
   987  06C0  2EE5               	goto	l1354
   988                           	
   989  06C1                     l4814:	
   990  06C1  2EE5               	goto	l1354
   991                           	line	62
   992                           	
   993  06C2                     l1353:	
   994                           	line	63
   995                           	
   996  06C2                     l4816:	
   997                           ;adc.c: 62: {
   998                           ;adc.c: 63: PORTCbits.RC5=~PORTCbits.RC5;
   999  06C2  1003               	clrc
  1000  06C3  1E8E               	btfss	(14),5	;volatile
  1001  06C4  1403               	setc
  1002  06C5  1803               	btfsc	status,0
  1003  06C6  2EC8               	goto	u3331
  1004  06C7  2ECB               	goto	u3330
  1005                           	
  1006  06C8                     u3331:
  1007  06C8  0020               	movlb 0	; select bank0
  1008  06C9  168E               	bsf	(14),5	;volatile
  1009  06CA  2ECD               	goto	u3344
  1010  06CB                     u3330:
  1011  06CB  0020               	movlb 0	; select bank0
  1012  06CC  128E               	bcf	(14),5	;volatile
  1013  06CD                     u3344:
  1014                           	line	64
  1015                           	
  1016  06CD                     l4818:	
  1017                           ;adc.c: 64: _delay((unsigned long)((1000)*(16000000/4000.0)));
  1018                           	opt asmopt_off
  1019  06CD  3015               movlw  21
  1020  06CE  00D2               movwf	((??_main+0)+0+2),f
  1021  06CF  304B               movlw	75
  1022  06D0  00D1               movwf	((??_main+0)+0+1),f
  1023  06D1  30D1               	movlw	209
  1024  06D2  00D0               movwf	((??_main+0)+0),f
  1025  06D3                     u3447:
  1026  06D3  0BD0               	decfsz	((??_main+0)+0),f
  1027  06D4  2ED3               	goto	u3447
  1028  06D5  0BD1               	decfsz	((??_main+0)+0+1),f
  1029  06D6  2ED3               	goto	u3447
  1030  06D7  0BD2               	decfsz	((??_main+0)+0+2),f
  1031  06D8  2ED3               	goto	u3447
  1032  06D9  0064               	clrwdt
  1033                           opt asmopt_on
  1034                           
  1035                           	line	61
  1036  06DA  3001               	movlw	(01h)
  1037  06DB  0020               	movlb 0	; select bank0
  1038  06DC  00D0               	movwf	(??_main+0)+0
  1039  06DD  0850               	movf	(??_main+0)+0,w
  1040  06DE  07E6               	addwf	(_k),f
  1041                           	
  1042  06DF                     l4820:	
  1043  06DF  3002               	movlw	(02h)
  1044  06E0  0266               	subwf	(_k),w
  1045  06E1  1C03               	skipc
  1046  06E2  2EE4               	goto	u3351
  1047  06E3  2EE5               	goto	u3350
  1048  06E4                     u3351:
  1049  06E4  2EC2               	goto	l4816
  1050  06E5                     u3350:
  1051                           	
  1052  06E5                     l1354:	
  1053                           	line	67
  1054                           ;adc.c: 65: }
  1055                           ;adc.c: 67: PORTCbits.RC1=1;
  1056  06E5  148E               	bsf	(14),1	;volatile
  1057                           	line	68
  1058                           	
  1059  06E6                     l4822:	
  1060                           ;adc.c: 68: delay(1000);
  1061  06E6  30E8               	movlw	low(03E8h)
  1062  06E7  00F0               	movwf	(?_delay)
  1063  06E8  3003               	movlw	high(03E8h)
  1064  06E9  00F1               	movwf	((?_delay))+1
  1065  06EA  3180  20F6  3186   	fcall	_delay
  1066                           	line	69
  1067                           	
  1068  06ED                     l4824:	
  1069                           ;adc.c: 69: PORTCbits.RC1=0;
  1070  06ED  0020               	movlb 0	; select bank0
  1071  06EE  108E               	bcf	(14),1	;volatile
  1072                           	line	70
  1073                           ;adc.c: 70: delay(1000);
  1074  06EF  30E8               	movlw	low(03E8h)
  1075  06F0  00F0               	movwf	(?_delay)
  1076  06F1  3003               	movlw	high(03E8h)
  1077  06F2  00F1               	movwf	((?_delay))+1
  1078  06F3  3180  20F6  3186   	fcall	_delay
  1079                           	line	71
  1080                           ;adc.c: 71: while(PORTAbits.RA5==1)
  1081  06F6  2EF8               	goto	l1355
  1082                           	
  1083  06F7                     l1356:	
  1084                           	line	73
  1085                           ;adc.c: 72: {
  1086                           ;adc.c: 73: PORTCbits.RC5=0;
  1087  06F7  128E               	bcf	(14),5	;volatile
  1088                           	line	74
  1089                           	
  1090  06F8                     l1355:	
  1091                           	line	71
  1092  06F8  0020               	movlb 0	; select bank0
  1093  06F9  1A8C               	btfsc	(12),5	;volatile
  1094  06FA  2EFC               	goto	u3361
  1095  06FB  2EFD               	goto	u3360
  1096  06FC                     u3361:
  1097  06FC  2EF7               	goto	l1356
  1098  06FD                     u3360:
  1099                           	
  1100  06FD                     l1357:	
  1101                           	line	75
  1102                           ;adc.c: 74: }
  1103                           ;adc.c: 75: PORTCbits.RC5=0;
  1104  06FD  128E               	bcf	(14),5	;volatile
  1105                           	line	76
  1106                           	
  1107  06FE                     l4826:	
  1108                           ;adc.c: 76: USART_SENDDATA(rfr);
  1109  06FE  0867               	movf	(_rfr),w
  1110  06FF  3180  20DA  3186   	fcall	_USART_SENDDATA
  1111  0702  2F03               	goto	l4828
  1112                           	line	77
  1113                           ;adc.c: 77: while(1)
  1114                           	
  1115  0703                     l1358:	
  1116                           	line	80
  1117                           	
  1118  0703                     l4828:	
  1119                           ;adc.c: 78: {
  1120                           ;adc.c: 80: if(PORTCbits.RC3 == 0)
  1121  0703  0020               	movlb 0	; select bank0
  1122  0704  198E               	btfsc	(14),3	;volatile
  1123  0705  2F07               	goto	u3371
  1124  0706  2F08               	goto	u3370
  1125  0707                     u3371:
  1126  0707  2FC4               	goto	l1359
  1127  0708                     u3370:
  1128                           	line	82
  1129                           	
  1130  0708                     l4830:	
  1131                           ;adc.c: 81: {
  1132                           ;adc.c: 82: if(CM2CON0bits.C2OUT==1)
  1133  0708  0022               	movlb 2	; select bank2
  1134  0709  1F13               	btfss	(275)^0100h,6	;volatile
  1135  070A  2F0C               	goto	u3381
  1136  070B  2F0D               	goto	u3380
  1137  070C                     u3381:
  1138  070C  2F15               	goto	l1360
  1139  070D                     u3380:
  1140                           	line	84
  1141                           	
  1142  070D                     l4832:	
  1143                           ;adc.c: 83: {
  1144                           ;adc.c: 84: PORTCbits.RC5=1;
  1145  070D  0020               	movlb 0	; select bank0
  1146  070E  168E               	bsf	(14),5	;volatile
  1147                           	line	85
  1148                           ;adc.c: 85: PIR2bits.C2IF=0;
  1149  070F  1312               	bcf	(18),6	;volatile
  1150                           	line	86
  1151                           	
  1152  0710                     l4834:	
  1153                           ;adc.c: 86: rfr= 0X65;
  1154  0710  3065               	movlw	(065h)
  1155  0711  00D0               	movwf	(??_main+0)+0
  1156  0712  0850               	movf	(??_main+0)+0,w
  1157  0713  00E7               	movwf	(_rfr)
  1158                           	line	88
  1159                           ;adc.c: 88: }
  1160  0714  2F1B               	goto	l1361
  1161                           	line	89
  1162                           	
  1163  0715                     l1360:	
  1164                           	line	91
  1165                           ;adc.c: 89: else
  1166                           ;adc.c: 90: {
  1167                           ;adc.c: 91: PORTCbits.RC5=0;
  1168  0715  0020               	movlb 0	; select bank0
  1169  0716  128E               	bcf	(14),5	;volatile
  1170                           	line	92
  1171                           	
  1172  0717                     l4836:	
  1173                           ;adc.c: 92: rfr= 0X75;
  1174  0717  3075               	movlw	(075h)
  1175  0718  00D0               	movwf	(??_main+0)+0
  1176  0719  0850               	movf	(??_main+0)+0,w
  1177  071A  00E7               	movwf	(_rfr)
  1178                           	line	93
  1179                           	
  1180  071B                     l1361:	
  1181                           	line	94
  1182                           ;adc.c: 93: }
  1183                           ;adc.c: 94: sd=5;
  1184  071B  3005               	movlw	low(05h)
  1185  071C  00DB               	movwf	(_sd)
  1186  071D  3000               	movlw	high(05h)
  1187  071E  00DC               	movwf	((_sd))+1
  1188                           	line	95
  1189                           ;adc.c: 95: add=0X06;
  1190  071F  3006               	movlw	(06h)
  1191  0720  00D0               	movwf	(??_main+0)+0
  1192  0721  0850               	movf	(??_main+0)+0,w
  1193  0722  00E0               	movwf	(_add)
  1194                           	line	96
  1195                           	
  1196  0723                     l4838:	
  1197                           ;adc.c: 96: ADC_CONV();
  1198  0723  3182  2266  3186   	fcall	_ADC_CONV
  1199                           	line	97
  1200                           	
  1201  0726                     l4840:	
  1202                           ;adc.c: 97: if(adcrx>=11 | adcry>=26)
  1203  0726  3000               	movlw	high(0Bh)
  1204  0727  0020               	movlb 0	; select bank0
  1205  0728  026C               	subwf	(_adcrx+1),w
  1206  0729  300B               	movlw	low(0Bh)
  1207  072A  1903               	skipnz
  1208  072B  026B               	subwf	(_adcrx),w
  1209  072C  1803               	skipnc
  1210  072D  2F2F               	goto	u3391
  1211  072E  2F30               	goto	u3390
  1212  072F                     u3391:
  1213  072F  2F3A               	goto	l4844
  1214  0730                     u3390:
  1215                           	
  1216  0730                     l4842:	
  1217  0730  3000               	movlw	high(01Ah)
  1218  0731  026E               	subwf	(_adcry+1),w
  1219  0732  301A               	movlw	low(01Ah)
  1220  0733  1903               	skipnz
  1221  0734  026D               	subwf	(_adcry),w
  1222  0735  1C03               	skipc
  1223  0736  2F38               	goto	u3401
  1224  0737  2F39               	goto	u3400
  1225  0738                     u3401:
  1226  0738  2FD3               	goto	l4870
  1227  0739                     u3400:
  1228  0739  2F3A               	goto	l4844
  1229                           	
  1230  073A                     l1364:	
  1231                           	line	99
  1232                           	
  1233  073A                     l4844:	
  1234                           ;adc.c: 98: {
  1235                           ;adc.c: 99: ptadcrx=adcrx;
  1236  073A  086C               	movf	(_adcrx+1),w
  1237  073B  01D6               	clrf	(_ptadcrx+1)
  1238  073C  07D6               	addwf	(_ptadcrx+1)
  1239  073D  086B               	movf	(_adcrx),w
  1240  073E  01D5               	clrf	(_ptadcrx)
  1241  073F  07D5               	addwf	(_ptadcrx)
  1242                           
  1243                           	line	100
  1244                           ;adc.c: 100: ptadcry=adcry;
  1245  0740  086E               	movf	(_adcry+1),w
  1246  0741  01D8               	clrf	(_ptadcry+1)
  1247  0742  07D8               	addwf	(_ptadcry+1)
  1248  0743  086D               	movf	(_adcry),w
  1249  0744  01D7               	clrf	(_ptadcry)
  1250  0745  07D7               	addwf	(_ptadcry)
  1251                           
  1252                           	line	101
  1253                           	
  1254  0746                     l4846:	
  1255                           ;adc.c: 101: ADC_CONV();
  1256  0746  3182  2266  3186   	fcall	_ADC_CONV
  1257                           	line	102
  1258                           	
  1259  0749                     l4848:	
  1260                           ;adc.c: 102: if(ptadcrx>adcrx)
  1261  0749  0020               	movlb 0	; select bank0
  1262  074A  0856               	movf	(_ptadcrx+1),w
  1263  074B  026C               	subwf	(_adcrx+1),w
  1264  074C  1D03               	skipz
  1265  074D  2F50               	goto	u3415
  1266  074E  0855               	movf	(_ptadcrx),w
  1267  074F  026B               	subwf	(_adcrx),w
  1268  0750                     u3415:
  1269  0750  1803               	skipnc
  1270  0751  2F53               	goto	u3411
  1271  0752  2F54               	goto	u3410
  1272  0753                     u3411:
  1273  0753  2F5B               	goto	l4852
  1274  0754                     u3410:
  1275                           	line	103
  1276                           	
  1277  0754                     l4850:	
  1278                           ;adc.c: 103: { adcrx=ptadcrx; }
  1279  0754  0856               	movf	(_ptadcrx+1),w
  1280  0755  01EC               	clrf	(_adcrx+1)
  1281  0756  07EC               	addwf	(_adcrx+1)
  1282  0757  0855               	movf	(_ptadcrx),w
  1283  0758  01EB               	clrf	(_adcrx)
  1284  0759  07EB               	addwf	(_adcrx)
  1285                           
  1286  075A  2F5B               	goto	l4852
  1287                           	
  1288  075B                     l1365:	
  1289                           	line	104
  1290                           	
  1291  075B                     l4852:	
  1292                           ;adc.c: 104: if(ptadcry>adcry)
  1293  075B  0858               	movf	(_ptadcry+1),w
  1294  075C  026E               	subwf	(_adcry+1),w
  1295  075D  1D03               	skipz
  1296  075E  2F61               	goto	u3425
  1297  075F  0857               	movf	(_ptadcry),w
  1298  0760  026D               	subwf	(_adcry),w
  1299  0761                     u3425:
  1300  0761  1803               	skipnc
  1301  0762  2F64               	goto	u3421
  1302  0763  2F65               	goto	u3420
  1303  0764                     u3421:
  1304  0764  2F6C               	goto	l4856
  1305  0765                     u3420:
  1306                           	line	105
  1307                           	
  1308  0765                     l4854:	
  1309                           ;adc.c: 105: { adcry=ptadcry; }
  1310  0765  0858               	movf	(_ptadcry+1),w
  1311  0766  01EE               	clrf	(_adcry+1)
  1312  0767  07EE               	addwf	(_adcry+1)
  1313  0768  0857               	movf	(_ptadcry),w
  1314  0769  01ED               	clrf	(_adcry)
  1315  076A  07ED               	addwf	(_adcry)
  1316                           
  1317  076B  2F6C               	goto	l4856
  1318                           	
  1319  076C                     l1366:	
  1320                           	line	106
  1321                           	
  1322  076C                     l4856:	
  1323                           ;adc.c: 106: sd=500;
  1324  076C  30F4               	movlw	low(01F4h)
  1325  076D  00DB               	movwf	(_sd)
  1326  076E  3001               	movlw	high(01F4h)
  1327  076F  00DC               	movwf	((_sd))+1
  1328                           	line	107
  1329                           	
  1330  0770                     l4858:	
  1331                           ;adc.c: 107: x=adcrx/10;
  1332  0770  300A               	movlw	low(0Ah)
  1333  0771  00F0               	movwf	(?___lwdiv)
  1334  0772  3000               	movlw	high(0Ah)
  1335  0773  00F1               	movwf	((?___lwdiv))+1
  1336  0774  086C               	movf	(_adcrx+1),w
  1337  0775  01F3               	clrf	1+(?___lwdiv)+02h
  1338  0776  07F3               	addwf	1+(?___lwdiv)+02h
  1339  0777  086B               	movf	(_adcrx),w
  1340  0778  01F2               	clrf	0+(?___lwdiv)+02h
  1341  0779  07F2               	addwf	0+(?___lwdiv)+02h
  1342                           
  1343  077A  3181  2163  3186   	fcall	___lwdiv
  1344  077D  0870               	movf	(0+(?___lwdiv)),w
  1345  077E  0020               	movlb 0	; select bank0
  1346  077F  00D0               	movwf	(??_main+0)+0
  1347  0780  0850               	movf	(??_main+0)+0,w
  1348  0781  00E9               	movwf	(_x)
  1349                           	line	108
  1350                           	
  1351  0782                     l4860:	
  1352                           ;adc.c: 108: y=adcry/25;
  1353  0782  3019               	movlw	low(019h)
  1354  0783  00F0               	movwf	(?___lwdiv)
  1355  0784  3000               	movlw	high(019h)
  1356  0785  00F1               	movwf	((?___lwdiv))+1
  1357  0786  086E               	movf	(_adcry+1),w
  1358  0787  01F3               	clrf	1+(?___lwdiv)+02h
  1359  0788  07F3               	addwf	1+(?___lwdiv)+02h
  1360  0789  086D               	movf	(_adcry),w
  1361  078A  01F2               	clrf	0+(?___lwdiv)+02h
  1362  078B  07F2               	addwf	0+(?___lwdiv)+02h
  1363                           
  1364  078C  3181  2163  3186   	fcall	___lwdiv
  1365  078F  0870               	movf	(0+(?___lwdiv)),w
  1366  0790  0020               	movlb 0	; select bank0
  1367  0791  00D0               	movwf	(??_main+0)+0
  1368  0792  0850               	movf	(??_main+0)+0,w
  1369  0793  00EA               	movwf	(_y)
  1370                           	line	109
  1371                           	
  1372  0794                     l4862:	
  1373                           ;adc.c: 109: adcrz=intdata[x]+intdata[y];
  1374  0794  086A               	movf	(_y),w
  1375  0795  3EA0               	addlw	_intdata&0ffh
  1376  0796  0086               	movwf	fsr1l
  1377  0797  0187               	clrf fsr1h	
  1378                           	
  1379  0798  0869               	movf	(_x),w
  1380  0799  3EA0               	addlw	_intdata&0ffh
  1381  079A  0084               	movwf	fsr0l
  1382  079B  0185               	clrf fsr0h	
  1383                           	
  1384  079C  0800               	movf	indf0,w
  1385  079D  0701               	addwf	indf1,w
  1386  079E  00D0               	movwf	(??_main+0)+0
  1387  079F  0850               	movf	(??_main+0)+0,w
  1388  07A0  00DE               	movwf	(_adcrz)
  1389                           	line	110
  1390                           	
  1391  07A1                     l4864:	
  1392                           ;adc.c: 110: rfr=sqrt(adcrz);
  1393  07A1  085E               	movf	(_adcrz),w
  1394  07A2  3181  2124  3186   	fcall	___lbtoft
  1395  07A5  0020               	movlb 0	; select bank0
  1396  07A6  082A               	movf	(0+(?___lbtoft)),w
  1397  07A7  00BD               	movwf	(?_sqrt)
  1398  07A8  082B               	movf	(1+(?___lbtoft)),w
  1399  07A9  00BE               	movwf	(?_sqrt+1)
  1400  07AA  082C               	movf	(2+(?___lbtoft)),w
  1401  07AB  00BF               	movwf	(?_sqrt+2)
  1402  07AC  3184  245C  3186   	fcall	_sqrt
  1403  07AF  0020               	movlb 0	; select bank0
  1404  07B0  083D               	movf	(0+(?_sqrt)),w
  1405  07B1  00F9               	movwf	(?___fttol)
  1406  07B2  083E               	movf	(1+(?_sqrt)),w
  1407  07B3  00FA               	movwf	(?___fttol+1)
  1408  07B4  083F               	movf	(2+(?_sqrt)),w
  1409  07B5  00FB               	movwf	(?___fttol+2)
  1410  07B6  3182  22F3  3186   	fcall	___fttol
  1411  07B9  0879               	movf	0+(((0+(?___fttol)))),w
  1412  07BA  0020               	movlb 0	; select bank0
  1413  07BB  00D0               	movwf	(??_main+0)+0
  1414  07BC  0850               	movf	(??_main+0)+0,w
  1415  07BD  00E7               	movwf	(_rfr)
  1416                           	line	111
  1417                           	
  1418  07BE                     l4866:	
  1419                           ;adc.c: 111: add=0X15;
  1420  07BE  3015               	movlw	(015h)
  1421  07BF  00D0               	movwf	(??_main+0)+0
  1422  07C0  0850               	movf	(??_main+0)+0,w
  1423  07C1  00E0               	movwf	(_add)
  1424  07C2  2FD3               	goto	l4870
  1425                           	line	112
  1426                           	
  1427  07C3                     l1362:	
  1428                           	line	113
  1429                           ;adc.c: 112: }
  1430                           ;adc.c: 113: }
  1431  07C3  2FD3               	goto	l4870
  1432                           	line	114
  1433                           	
  1434  07C4                     l1359:	
  1435                           	line	116
  1436                           ;adc.c: 114: else
  1437                           ;adc.c: 115: {
  1438                           ;adc.c: 116: T1CONbits.TMR1ON=0;
  1439  07C4  1018               	bcf	(24),0	;volatile
  1440                           	line	117
  1441                           ;adc.c: 117: PORTCbits.RC5=0;
  1442  07C5  128E               	bcf	(14),5	;volatile
  1443                           	line	118
  1444                           	
  1445  07C6                     l4868:	
  1446                           ;adc.c: 118: rfr=0X45;
  1447  07C6  3045               	movlw	(045h)
  1448  07C7  00D0               	movwf	(??_main+0)+0
  1449  07C8  0850               	movf	(??_main+0)+0,w
  1450  07C9  00E7               	movwf	(_rfr)
  1451                           	line	119
  1452                           ;adc.c: 119: add=0X06;
  1453  07CA  3006               	movlw	(06h)
  1454  07CB  00D0               	movwf	(??_main+0)+0
  1455  07CC  0850               	movf	(??_main+0)+0,w
  1456  07CD  00E0               	movwf	(_add)
  1457                           	line	120
  1458                           ;adc.c: 120: sd=5;
  1459  07CE  3005               	movlw	low(05h)
  1460  07CF  00DB               	movwf	(_sd)
  1461  07D0  3000               	movlw	high(05h)
  1462  07D1  00DC               	movwf	((_sd))+1
  1463  07D2  2FD3               	goto	l4870
  1464                           	line	121
  1465                           	
  1466  07D3                     l1367:	
  1467                           	line	123
  1468                           	
  1469  07D3                     l4870:	
  1470                           ;adc.c: 121: }
  1471                           ;adc.c: 123: for(h=0;h<sd;h++)
  1472  07D3  01E4               	clrf	(_h)
  1473  07D4  2FEF               	goto	l4876
  1474                           	line	124
  1475                           	
  1476  07D5                     l1369:	
  1477                           	line	125
  1478                           	
  1479  07D5                     l4872:	
  1480                           ;adc.c: 124: {
  1481                           ;adc.c: 125: USART_SENDDATA(start);
  1482  07D5  086F               	movf	(_start),w
  1483  07D6  3180  20DA  3186   	fcall	_USART_SENDDATA
  1484                           	line	126
  1485                           ;adc.c: 126: USART_SENDDATA(rfr);
  1486  07D9  0020               	movlb 0	; select bank0
  1487  07DA  0867               	movf	(_rfr),w
  1488  07DB  3180  20DA  3186   	fcall	_USART_SENDDATA
  1489                           	line	127
  1490                           ;adc.c: 127: USART_SENDDATA(add);
  1491  07DE  0020               	movlb 0	; select bank0
  1492  07DF  0860               	movf	(_add),w
  1493  07E0  3180  20DA  3186   	fcall	_USART_SENDDATA
  1494                           	line	128
  1495                           ;adc.c: 128: USART_SENDDATA(add+rfr);
  1496  07E3  0020               	movlb 0	; select bank0
  1497  07E4  0860               	movf	(_add),w
  1498  07E5  0767               	addwf	(_rfr),w
  1499  07E6  3180  20DA  3186   	fcall	_USART_SENDDATA
  1500                           	line	123
  1501                           	
  1502  07E9                     l4874:	
  1503  07E9  3001               	movlw	(01h)
  1504  07EA  0020               	movlb 0	; select bank0
  1505  07EB  00D0               	movwf	(??_main+0)+0
  1506  07EC  0850               	movf	(??_main+0)+0,w
  1507  07ED  07E4               	addwf	(_h),f
  1508  07EE  2FEF               	goto	l4876
  1509                           	
  1510  07EF                     l1368:	
  1511                           	
  1512  07EF                     l4876:	
  1513  07EF  0864               	movf	(_h),w
  1514  07F0  00D0               	movwf	(??_main+0)+0
  1515  07F1  01D1               	clrf	(??_main+0)+0+1
  1516  07F2  085C               	movf	(_sd+1),w
  1517  07F3  0251               	subwf	1+(??_main+0)+0,w
  1518  07F4  1D03               	skipz
  1519  07F5  2FF8               	goto	u3435
  1520  07F6  085B               	movf	(_sd),w
  1521  07F7  0250               	subwf	0+(??_main+0)+0,w
  1522  07F8                     u3435:
  1523  07F8  1C03               	skipc
  1524  07F9  2FFB               	goto	u3431
  1525  07FA  2FFC               	goto	u3430
  1526  07FB                     u3431:
  1527  07FB  2FD5               	goto	l4872
  1528  07FC                     u3430:
  1529  07FC  2F03               	goto	l4828
  1530                           	
  1531  07FD                     l1370:	
  1532  07FD  2F03               	goto	l4828
  1533                           	line	133
  1534                           	
  1535  07FE                     l1371:	
  1536                           	line	77
  1537  07FE  2F03               	goto	l4828
  1538                           	
  1539  07FF                     l1372:	
  1540                           	line	135
  1541                           	
  1542  07FF                     l1373:	
  1543                           	global	start
  1544  07FF  2801               	ljmp	start
  1545                           	opt stack 0
  1546                           GLOBAL	__end_of_main
  1547  0800                     	__end_of_main:
  1548 ;; =============== function _main ends ============
  1549                           
  1550                           	signat	_main,88
  1551                           	global	_sqrt
  1552                           psect	text314,local,class=CODE,delta=2
  1553                           global __ptext314
  1554  045C                     __ptext314:
  1555                           
  1556 ;; *************** function _sqrt *****************
  1557 ;; Defined at:
  1558 ;;		line 14 in file "C:\Program Files\HI-TECH Software\PICC\9.83\sources\sqrt.c"
  1559 ;; Parameters:    Size  Location     Type
  1560 ;;  y               3   29[BANK0 ] unsigned int 
  1561 ;; Auto vars:     Size  Location     Type
  1562 ;;  x               3   45[BANK0 ] unsigned int 
  1563 ;;  q               3   42[BANK0 ] unsigned int 
  1564 ;;  z               3   38[BANK0 ] unsigned int 
  1565 ;;  og              3   35[BANK0 ] unsigned int 
  1566 ;;  i               1   41[BANK0 ] unsigned char 
  1567 ;; Return value:  Size  Location     Type
  1568 ;;                  3   29[BANK0 ] unsigned char 
  1569 ;; Registers used:
  1570 ;;		wreg, status,2, status,0, pclath, cstack
  1571 ;; Tracked objects:
  1572 ;;		On entry : 0/0
  1573 ;;		On exit  : 0/0
  1574 ;;		Unchanged: 0/0
  1575 ;; Data sizes:     COMMON   BANK0   BANK1
  1576 ;;      Params:         0       3       0
  1577 ;;      Locals:         0      13       0
  1578 ;;      Temps:          0       3       0
  1579 ;;      Totals:         0      19       0
  1580 ;;Total ram usage:       19 bytes
  1581 ;; Hardware stack levels used:    1
  1582 ;; Hardware stack levels required when called:    3
  1583 ;; This function calls:
  1584 ;;		___ftge
  1585 ;;		___ftmul
  1586 ;;		___ftsub
  1587 ;; This function is called by:
  1588 ;;		_main
  1589 ;; This function uses a non-reentrant model
  1590 ;;
  1591                           psect	text314
  1592                           	file	"C:\Program Files\HI-TECH Software\PICC\9.83\sources\sqrt.c"
  1593                           	line	14
  1594                           	global	__size_of_sqrt
  1595  00FA                     	__size_of_sqrt	equ	__end_of_sqrt-_sqrt
  1596                           	
  1597  045C                     _sqrt:	
  1598                           	opt	stack 12
  1599                           ; Regs used in _sqrt: [wreg+status,2+status,0+pclath+cstack]
  1600                           	line	19
  1601                           	
  1602  045C                     l4738:	
  1603  045C  3000               	movlw	0x0
  1604  045D  00F0               	movwf	(?___ftge)
  1605  045E  3000               	movlw	0x0
  1606  045F  00F1               	movwf	(?___ftge+1)
  1607  0460  3000               	movlw	0x0
  1608  0461  00F2               	movwf	(?___ftge+2)
  1609  0462  0020               	movlb 0	; select bank0
  1610  0463  083D               	movf	(sqrt@y),w
  1611  0464  00F3               	movwf	0+(?___ftge)+03h
  1612  0465  083E               	movf	(sqrt@y+1),w
  1613  0466  00F4               	movwf	1+(?___ftge)+03h
  1614  0467  083F               	movf	(sqrt@y+2),w
  1615  0468  00F5               	movwf	2+(?___ftge)+03h
  1616  0469  3181  21A9  3184   	fcall	___ftge
  1617  046C  1C03               	btfss	status,0
  1618  046D  2C6F               	goto	u3281
  1619  046E  2C70               	goto	u3280
  1620  046F                     u3281:
  1621  046F  2C92               	goto	l4746
  1622  0470                     u3280:
  1623                           	line	20
  1624                           	
  1625  0470                     l4740:	
  1626  0470  0020               	movlb 0	; select bank0
  1627  0471  083D               	movf	(sqrt@y),w
  1628  0472  00F0               	movwf	(?___ftge)
  1629  0473  083E               	movf	(sqrt@y+1),w
  1630  0474  00F1               	movwf	(?___ftge+1)
  1631  0475  083F               	movf	(sqrt@y+2),w
  1632  0476  00F2               	movwf	(?___ftge+2)
  1633  0477  3000               	movlw	0x0
  1634  0478  00F3               	movwf	0+(?___ftge)+03h
  1635  0479  3000               	movlw	0x0
  1636  047A  00F4               	movwf	1+(?___ftge)+03h
  1637  047B  3000               	movlw	0x0
  1638  047C  00F5               	movwf	2+(?___ftge)+03h
  1639  047D  3181  21A9  3184   	fcall	___ftge
  1640  0480  1803               	btfsc	status,0
  1641  0481  2C83               	goto	u3291
  1642  0482  2C84               	goto	u3290
  1643  0483                     u3291:
  1644  0483  2C89               	goto	l2628
  1645  0484                     u3290:
  1646                           	line	21
  1647                           	
  1648  0484                     l4742:	
  1649  0484  3021               	movlw	low(021h)
  1650  0485  0020               	movlb 0	; select bank0
  1651  0486  00D3               	movwf	(_errno)
  1652  0487  3000               	movlw	high(021h)
  1653  0488  00D4               	movwf	((_errno))+1
  1654                           	
  1655  0489                     l2628:	
  1656                           	line	22
  1657  0489  3000               	movlw	0x0
  1658  048A  0020               	movlb 0	; select bank0
  1659  048B  00BD               	movwf	(?_sqrt)
  1660  048C  3000               	movlw	0x0
  1661  048D  00BE               	movwf	(?_sqrt+1)
  1662  048E  3000               	movlw	0x0
  1663  048F  00BF               	movwf	(?_sqrt+2)
  1664  0490  2D55               	goto	l2629
  1665                           	
  1666  0491                     l4744:	
  1667  0491  2D55               	goto	l2629
  1668                           	line	23
  1669                           	
  1670  0492                     l2627:	
  1671                           	line	24
  1672                           	
  1673  0492                     l4746:	
  1674  0492  0020               	movlb 0	; select bank0
  1675  0493  083D               	movf	(sqrt@y),w
  1676  0494  00C6               	movwf	(sqrt@z)
  1677  0495  083E               	movf	(sqrt@y+1),w
  1678  0496  00C7               	movwf	(sqrt@z+1)
  1679  0497  083F               	movf	(sqrt@y+2),w
  1680  0498  00C8               	movwf	(sqrt@z+2)
  1681                           	line	30
  1682                           	
  1683  0499                     l4748:	
  1684  0499  093D               	comf	(sqrt@y),w
  1685  049A  00C0               	movwf	(??_sqrt+0)+0
  1686  049B  093E               	comf	(sqrt@y+1),w
  1687  049C  00C1               	movwf	((??_sqrt+0)+0+1)
  1688  049D  093F               	comf	(sqrt@y+2),w
  1689  049E  00C2               	movwf	((??_sqrt+0)+0+2)
  1690  049F  0AC0               	incf	(??_sqrt+0)+0,f
  1691  04A0  1903               	skipnz
  1692  04A1  0AC1               	incf	((??_sqrt+0)+0+1),f
  1693  04A2  1903               	skipnz
  1694  04A3  0AC2               	incf	((??_sqrt+0)+0+2),f
  1695  04A4  30C8               	movlw	0C8h
  1696  04A5  0740               	addwf	(0+(??_sqrt+0)+0),w
  1697  04A6  00CD               	movwf	(sqrt@x)
  1698  04A7  306E               	movlw	06Eh
  1699  04A8  3D41               	addwfc	(1+(??_sqrt+0)+0),w
  1700  04A9  00CE               	movwf	1+(sqrt@x)
  1701  04AA  30BE               	movlw	0BEh
  1702  04AB  3D42               	addwfc	(2+(??_sqrt+0)+0),w
  1703  04AC  00CF               	movwf	2+(sqrt@x)
  1704                           	line	31
  1705                           	
  1706  04AD                     l4750:	
  1707  04AD  3001               	movlw	01h
  1708  04AE                     u3305:
  1709  04AE  36CF               	lsrf	(sqrt@x+2),f
  1710  04AF  0CCE               	rrf	(sqrt@x+1),f
  1711  04B0  0CCD               	rrf	(sqrt@x),f
  1712  04B1  0B89               	decfsz	wreg,f
  1713  04B2  2CAE               	goto	u3305
  1714                           
  1715                           	line	32
  1716  04B3  3000               	movlw	0
  1717  04B4  00C0               	movwf	((??_sqrt+0)+0)
  1718  04B5  3080               	movlw	080h
  1719  04B6  00C1               	movwf	((??_sqrt+0)+0+1)
  1720  04B7  3000               	movlw	0
  1721  04B8  00C2               	movwf	((??_sqrt+0)+0+2)
  1722  04B9  0840               	movf	0+(??_sqrt+0)+0,w
  1723  04BA  02C6               	subwf	(sqrt@z),f
  1724  04BB  0841               	movf	1+(??_sqrt+0)+0,w
  1725  04BC  3BC7               	subwfb	(sqrt@z+1),f
  1726  04BD  0842               	movf	2+(??_sqrt+0)+0,w
  1727  04BE  3BC8               	subwfb	(sqrt@z+2),f
  1728                           	line	34
  1729  04BF  3004               	movlw	(04h)
  1730  04C0  00C0               	movwf	(??_sqrt+0)+0
  1731  04C1  0840               	movf	(??_sqrt+0)+0,w
  1732  04C2  00C9               	movwf	(sqrt@i)
  1733                           	line	35
  1734                           	
  1735  04C3                     l2630:	
  1736                           	line	36
  1737  04C3  084D               	movf	(sqrt@x),w
  1738  04C4  00C3               	movwf	(sqrt@og)
  1739  04C5  084E               	movf	(sqrt@x+1),w
  1740  04C6  00C4               	movwf	(sqrt@og+1)
  1741  04C7  084F               	movf	(sqrt@x+2),w
  1742  04C8  00C5               	movwf	(sqrt@og+2)
  1743                           	line	37
  1744                           	
  1745  04C9                     l4752:	
  1746  04C9  0846               	movf	(sqrt@z),w
  1747  04CA  00AA               	movwf	(?___ftmul)
  1748  04CB  0847               	movf	(sqrt@z+1),w
  1749  04CC  00AB               	movwf	(?___ftmul+1)
  1750  04CD  0848               	movf	(sqrt@z+2),w
  1751  04CE  00AC               	movwf	(?___ftmul+2)
  1752  04CF  084D               	movf	(sqrt@x),w
  1753  04D0  00AD               	movwf	0+(?___ftmul)+03h
  1754  04D1  084E               	movf	(sqrt@x+1),w
  1755  04D2  00AE               	movwf	1+(?___ftmul)+03h
  1756  04D3  084F               	movf	(sqrt@x+2),w
  1757  04D4  00AF               	movwf	2+(?___ftmul)+03h
  1758  04D5  3183  2392  3184   	fcall	___ftmul
  1759  04D8  0020               	movlb 0	; select bank0
  1760  04D9  082A               	movf	(0+(?___ftmul)),w
  1761  04DA  00CA               	movwf	(sqrt@q)
  1762  04DB  082B               	movf	(1+(?___ftmul)),w
  1763  04DC  00CB               	movwf	(sqrt@q+1)
  1764  04DD  082C               	movf	(2+(?___ftmul)),w
  1765  04DE  00CC               	movwf	(sqrt@q+2)
  1766                           	line	38
  1767                           	
  1768  04DF                     l4754:	
  1769  04DF  084D               	movf	(sqrt@x),w
  1770  04E0  00AA               	movwf	(?___ftmul)
  1771  04E1  084E               	movf	(sqrt@x+1),w
  1772  04E2  00AB               	movwf	(?___ftmul+1)
  1773  04E3  084F               	movf	(sqrt@x+2),w
  1774  04E4  00AC               	movwf	(?___ftmul+2)
  1775  04E5  084A               	movf	(sqrt@q),w
  1776  04E6  00AD               	movwf	0+(?___ftmul)+03h
  1777  04E7  084B               	movf	(sqrt@q+1),w
  1778  04E8  00AE               	movwf	1+(?___ftmul)+03h
  1779  04E9  084C               	movf	(sqrt@q+2),w
  1780  04EA  00AF               	movwf	2+(?___ftmul)+03h
  1781  04EB  3183  2392  3184   	fcall	___ftmul
  1782  04EE  0020               	movlb 0	; select bank0
  1783  04EF  082A               	movf	(0+(?___ftmul)),w
  1784  04F0  00CA               	movwf	(sqrt@q)
  1785  04F1  082B               	movf	(1+(?___ftmul)),w
  1786  04F2  00CB               	movwf	(sqrt@q+1)
  1787  04F3  082C               	movf	(2+(?___ftmul)),w
  1788  04F4  00CC               	movwf	(sqrt@q+2)
  1789                           	line	39
  1790                           	
  1791  04F5                     l4756:	
  1792  04F5  084D               	movf	(sqrt@x),w
  1793  04F6  00AA               	movwf	(?___ftmul)
  1794  04F7  084E               	movf	(sqrt@x+1),w
  1795  04F8  00AB               	movwf	(?___ftmul+1)
  1796  04F9  084F               	movf	(sqrt@x+2),w
  1797  04FA  00AC               	movwf	(?___ftmul+2)
  1798  04FB  084A               	movf	(sqrt@q),w
  1799  04FC  00AD               	movwf	0+(?___ftmul)+03h
  1800  04FD  084B               	movf	(sqrt@q+1),w
  1801  04FE  00AE               	movwf	1+(?___ftmul)+03h
  1802  04FF  084C               	movf	(sqrt@q+2),w
  1803  0500  00AF               	movwf	2+(?___ftmul)+03h
  1804  0501  3183  2392  3184   	fcall	___ftmul
  1805  0504  0020               	movlb 0	; select bank0
  1806  0505  082A               	movf	(0+(?___ftmul)),w
  1807  0506  00CA               	movwf	(sqrt@q)
  1808  0507  082B               	movf	(1+(?___ftmul)),w
  1809  0508  00CB               	movwf	(sqrt@q+1)
  1810  0509  082C               	movf	(2+(?___ftmul)),w
  1811  050A  00CC               	movwf	(sqrt@q+2)
  1812                           	line	40
  1813                           	
  1814  050B                     l4758:	
  1815  050B  3000               	movlw	0x0
  1816  050C  00AA               	movwf	(?___ftmul)
  1817  050D  30C0               	movlw	0xc0
  1818  050E  00AB               	movwf	(?___ftmul+1)
  1819  050F  303F               	movlw	0x3f
  1820  0510  00AC               	movwf	(?___ftmul+2)
  1821  0511  084D               	movf	(sqrt@x),w
  1822  0512  00AD               	movwf	0+(?___ftmul)+03h
  1823  0513  084E               	movf	(sqrt@x+1),w
  1824  0514  00AE               	movwf	1+(?___ftmul)+03h
  1825  0515  084F               	movf	(sqrt@x+2),w
  1826  0516  00AF               	movwf	2+(?___ftmul)+03h
  1827  0517  3183  2392  3184   	fcall	___ftmul
  1828  051A  0020               	movlb 0	; select bank0
  1829  051B  082A               	movf	(0+(?___ftmul)),w
  1830  051C  00CD               	movwf	(sqrt@x)
  1831  051D  082B               	movf	(1+(?___ftmul)),w
  1832  051E  00CE               	movwf	(sqrt@x+1)
  1833  051F  082C               	movf	(2+(?___ftmul)),w
  1834  0520  00CF               	movwf	(sqrt@x+2)
  1835                           	line	41
  1836                           	
  1837  0521                     l4760:	
  1838  0521  084A               	movf	(sqrt@q),w
  1839  0522  00B7               	movwf	(?___ftsub)
  1840  0523  084B               	movf	(sqrt@q+1),w
  1841  0524  00B8               	movwf	(?___ftsub+1)
  1842  0525  084C               	movf	(sqrt@q+2),w
  1843  0526  00B9               	movwf	(?___ftsub+2)
  1844  0527  084D               	movf	(sqrt@x),w
  1845  0528  00BA               	movwf	0+(?___ftsub)+03h
  1846  0529  084E               	movf	(sqrt@x+1),w
  1847  052A  00BB               	movwf	1+(?___ftsub)+03h
  1848  052B  084F               	movf	(sqrt@x+2),w
  1849  052C  00BC               	movwf	2+(?___ftsub)+03h
  1850  052D  3181  2109  3184   	fcall	___ftsub
  1851  0530  0020               	movlb 0	; select bank0
  1852  0531  0837               	movf	(0+(?___ftsub)),w
  1853  0532  00CD               	movwf	(sqrt@x)
  1854  0533  0838               	movf	(1+(?___ftsub)),w
  1855  0534  00CE               	movwf	(sqrt@x+1)
  1856  0535  0839               	movf	(2+(?___ftsub)),w
  1857  0536  00CF               	movwf	(sqrt@x+2)
  1858                           	line	42
  1859                           	
  1860  0537                     l4762:	
  1861  0537  3001               	movlw	low(01h)
  1862  0538  02C9               	subwf	(sqrt@i),f
  1863  0539  1D03               	btfss	status,2
  1864  053A  2D3C               	goto	u3311
  1865  053B  2D3D               	goto	u3310
  1866  053C                     u3311:
  1867  053C  2CC3               	goto	l2630
  1868  053D                     u3310:
  1869  053D  2D3E               	goto	l4764
  1870                           	
  1871  053E                     l2631:	
  1872                           	line	43
  1873                           	
  1874  053E                     l4764:	
  1875  053E  083D               	movf	(sqrt@y),w
  1876  053F  00AA               	movwf	(?___ftmul)
  1877  0540  083E               	movf	(sqrt@y+1),w
  1878  0541  00AB               	movwf	(?___ftmul+1)
  1879  0542  083F               	movf	(sqrt@y+2),w
  1880  0543  00AC               	movwf	(?___ftmul+2)
  1881  0544  084D               	movf	(sqrt@x),w
  1882  0545  00AD               	movwf	0+(?___ftmul)+03h
  1883  0546  084E               	movf	(sqrt@x+1),w
  1884  0547  00AE               	movwf	1+(?___ftmul)+03h
  1885  0548  084F               	movf	(sqrt@x+2),w
  1886  0549  00AF               	movwf	2+(?___ftmul)+03h
  1887  054A  3183  2392  3184   	fcall	___ftmul
  1888  054D  0020               	movlb 0	; select bank0
  1889  054E  082A               	movf	(0+(?___ftmul)),w
  1890  054F  00BD               	movwf	(?_sqrt)
  1891  0550  082B               	movf	(1+(?___ftmul)),w
  1892  0551  00BE               	movwf	(?_sqrt+1)
  1893  0552  082C               	movf	(2+(?___ftmul)),w
  1894  0553  00BF               	movwf	(?_sqrt+2)
  1895  0554  2D55               	goto	l2629
  1896                           	
  1897  0555                     l4766:	
  1898                           	line	44
  1899                           	
  1900  0555                     l2629:	
  1901  0555  0008               	return
  1902                           	opt stack 0
  1903                           GLOBAL	__end_of_sqrt
  1904  0556                     	__end_of_sqrt:
  1905 ;; =============== function _sqrt ends ============
  1906                           
  1907                           	signat	_sqrt,4219
  1908                           	global	___ftsub
  1909                           psect	text315,local,class=CODE,delta=2
  1910                           global __ptext315
  1911  0109                     __ptext315:
  1912                           
  1913 ;; *************** function ___ftsub *****************
  1914 ;; Defined at:
  1915 ;;		line 17 in file "C:\Program Files\HI-TECH Software\PICC\9.83\sources\ftsub.c"
  1916 ;; Parameters:    Size  Location     Type
  1917 ;;  f2              3   23[BANK0 ] float 
  1918 ;;  f1              3   26[BANK0 ] float 
  1919 ;; Auto vars:     Size  Location     Type
  1920 ;;		None
  1921 ;; Return value:  Size  Location     Type
  1922 ;;                  3   23[BANK0 ] float 
  1923 ;; Registers used:
  1924 ;;		wreg, status,2, status,0, pclath, cstack
  1925 ;; Tracked objects:
  1926 ;;		On entry : 0/0
  1927 ;;		On exit  : 0/0
  1928 ;;		Unchanged: 0/0
  1929 ;; Data sizes:     COMMON   BANK0   BANK1
  1930 ;;      Params:         0       6       0
  1931 ;;      Locals:         0       0       0
  1932 ;;      Temps:          0       0       0
  1933 ;;      Totals:         0       6       0
  1934 ;;Total ram usage:        6 bytes
  1935 ;; Hardware stack levels used:    1
  1936 ;; Hardware stack levels required when called:    2
  1937 ;; This function calls:
  1938 ;;		___ftadd
  1939 ;; This function is called by:
  1940 ;;		_sqrt
  1941 ;; This function uses a non-reentrant model
  1942 ;;
  1943                           psect	text315
  1944                           	file	"C:\Program Files\HI-TECH Software\PICC\9.83\sources\ftsub.c"
  1945                           	line	17
  1946                           	global	__size_of___ftsub
  1947  001B                     	__size_of___ftsub	equ	__end_of___ftsub-___ftsub
  1948                           	
  1949  0109                     ___ftsub:	
  1950                           	opt	stack 12
  1951                           ; Regs used in ___ftsub: [wreg+status,2+status,0+pclath+cstack]
  1952                           	line	18
  1953                           	
  1954  0109                     l4732:	
  1955  0109  3080               	movlw	080h
  1956  010A  0020               	movlb 0	; select bank0
  1957  010B  06B9               	xorwf	(___ftsub@f2+2),f
  1958                           	line	19
  1959                           	
  1960  010C                     l4734:	
  1961  010C  083A               	movf	(___ftsub@f1),w
  1962  010D  00AA               	movwf	(?___ftadd)
  1963  010E  083B               	movf	(___ftsub@f1+1),w
  1964  010F  00AB               	movwf	(?___ftadd+1)
  1965  0110  083C               	movf	(___ftsub@f1+2),w
  1966  0111  00AC               	movwf	(?___ftadd+2)
  1967  0112  0837               	movf	(___ftsub@f2),w
  1968  0113  00AD               	movwf	0+(?___ftadd)+03h
  1969  0114  0838               	movf	(___ftsub@f2+1),w
  1970  0115  00AE               	movwf	1+(?___ftadd)+03h
  1971  0116  0839               	movf	(___ftsub@f2+2),w
  1972  0117  00AF               	movwf	2+(?___ftadd)+03h
  1973  0118  3185  2556  3181   	fcall	___ftadd
  1974  011B  0020               	movlb 0	; select bank0
  1975  011C  082A               	movf	(0+(?___ftadd)),w
  1976  011D  00B7               	movwf	(?___ftsub)
  1977  011E  082B               	movf	(1+(?___ftadd)),w
  1978  011F  00B8               	movwf	(?___ftsub+1)
  1979  0120  082C               	movf	(2+(?___ftadd)),w
  1980  0121  00B9               	movwf	(?___ftsub+2)
  1981  0122  2923               	goto	l2725
  1982                           	
  1983  0123                     l4736:	
  1984                           	line	20
  1985                           	
  1986  0123                     l2725:	
  1987  0123  0008               	return
  1988                           	opt stack 0
  1989                           GLOBAL	__end_of___ftsub
  1990  0124                     	__end_of___ftsub:
  1991 ;; =============== function ___ftsub ends ============
  1992                           
  1993                           	signat	___ftsub,8315
  1994                           	global	___lbtoft
  1995                           psect	text316,local,class=CODE,delta=2
  1996                           global __ptext316
  1997  0124                     __ptext316:
  1998                           
  1999 ;; *************** function ___lbtoft *****************
  2000 ;; Defined at:
  2001 ;;		line 28 in file "C:\Program Files\HI-TECH Software\PICC\9.83\sources\lbtoft.c"
  2002 ;; Parameters:    Size  Location     Type
  2003 ;;  c               1    wreg     unsigned char 
  2004 ;; Auto vars:     Size  Location     Type
  2005 ;;  c               1   13[COMMON] unsigned char 
  2006 ;; Return value:  Size  Location     Type
  2007 ;;                  3   10[BANK0 ] float 
  2008 ;; Registers used:
  2009 ;;		wreg, status,2, status,0, pclath, cstack
  2010 ;; Tracked objects:
  2011 ;;		On entry : 0/0
  2012 ;;		On exit  : 0/0
  2013 ;;		Unchanged: 0/0
  2014 ;; Data sizes:     COMMON   BANK0   BANK1
  2015 ;;      Params:         0       3       0
  2016 ;;      Locals:         1       0       0
  2017 ;;      Temps:          0       4       0
  2018 ;;      Totals:         1       7       0
  2019 ;;Total ram usage:        8 bytes
  2020 ;; Hardware stack levels used:    1
  2021 ;; Hardware stack levels required when called:    1
  2022 ;; This function calls:
  2023 ;;		___ftpack
  2024 ;; This function is called by:
  2025 ;;		_main
  2026 ;; This function uses a non-reentrant model
  2027 ;;
  2028                           psect	text316
  2029                           	file	"C:\Program Files\HI-TECH Software\PICC\9.83\sources\lbtoft.c"
  2030                           	line	28
  2031                           	global	__size_of___lbtoft
  2032  001D                     	__size_of___lbtoft	equ	__end_of___lbtoft-___lbtoft
  2033                           	
  2034  0124                     ___lbtoft:	
  2035                           	opt	stack 14
  2036                           ; Regs used in ___lbtoft: [wreg+status,2+status,0+pclath+cstack]
  2037                           ;___lbtoft@c stored from wreg
  2038  0124  00FD               	movwf	(___lbtoft@c)
  2039                           	line	29
  2040                           	
  2041  0125                     l4728:	
  2042  0125  087D               	movf	(___lbtoft@c),w
  2043  0126  0020               	movlb 0	; select bank0
  2044  0127  00AD               	movwf	((??___lbtoft+0)+0)
  2045  0128  01AE               	clrf	((??___lbtoft+0)+0+1)
  2046  0129  01AF               	clrf	((??___lbtoft+0)+0+2)
  2047  012A  082D               	movf	0+(??___lbtoft+0)+0,w
  2048  012B  00F0               	movwf	(?___ftpack)
  2049  012C  082E               	movf	1+(??___lbtoft+0)+0,w
  2050  012D  00F1               	movwf	(?___ftpack+1)
  2051  012E  082F               	movf	2+(??___lbtoft+0)+0,w
  2052  012F  00F2               	movwf	(?___ftpack+2)
  2053  0130  308E               	movlw	(08Eh)
  2054  0131  00B0               	movwf	(??___lbtoft+3)+0
  2055  0132  0830               	movf	(??___lbtoft+3)+0,w
  2056  0133  00F3               	movwf	0+(?___ftpack)+03h
  2057  0134  01F4               	clrf	0+(?___ftpack)+04h
  2058  0135  3181  21F3  3181   	fcall	___ftpack
  2059  0138  0870               	movf	(0+(?___ftpack)),w
  2060  0139  0020               	movlb 0	; select bank0
  2061  013A  00AA               	movwf	(?___lbtoft)
  2062  013B  0871               	movf	(1+(?___ftpack)),w
  2063  013C  00AB               	movwf	(?___lbtoft+1)
  2064  013D  0872               	movf	(2+(?___ftpack)),w
  2065  013E  00AC               	movwf	(?___lbtoft+2)
  2066  013F  2940               	goto	l2767
  2067                           	
  2068  0140                     l4730:	
  2069                           	line	30
  2070                           	
  2071  0140                     l2767:	
  2072  0140  0008               	return
  2073                           	opt stack 0
  2074                           GLOBAL	__end_of___lbtoft
  2075  0141                     	__end_of___lbtoft:
  2076 ;; =============== function ___lbtoft ends ============
  2077                           
  2078                           	signat	___lbtoft,4219
  2079                           	global	___ftmul
  2080                           psect	text317,local,class=CODE,delta=2
  2081                           global __ptext317
  2082  0392                     __ptext317:
  2083                           
  2084 ;; *************** function ___ftmul *****************
  2085 ;; Defined at:
  2086 ;;		line 52 in file "C:\Program Files\HI-TECH Software\PICC\9.83\sources\ftmul.c"
  2087 ;; Parameters:    Size  Location     Type
  2088 ;;  f1              3   10[BANK0 ] float 
  2089 ;;  f2              3   13[BANK0 ] float 
  2090 ;; Auto vars:     Size  Location     Type
  2091 ;;  f3_as_produc    3   21[BANK0 ] unsigned um
  2092 ;;  sign            1   25[BANK0 ] unsigned char 
  2093 ;;  cntr            1   24[BANK0 ] unsigned char 
  2094 ;;  exp             1   20[BANK0 ] unsigned char 
  2095 ;; Return value:  Size  Location     Type
  2096 ;;                  3   10[BANK0 ] float 
  2097 ;; Registers used:
  2098 ;;		wreg, status,2, status,0, pclath, cstack
  2099 ;; Tracked objects:
  2100 ;;		On entry : 0/0
  2101 ;;		On exit  : 0/0
  2102 ;;		Unchanged: 0/0
  2103 ;; Data sizes:     COMMON   BANK0   BANK1
  2104 ;;      Params:         0       6       0
  2105 ;;      Locals:         0       6       0
  2106 ;;      Temps:          0       4       0
  2107 ;;      Totals:         0      16       0
  2108 ;;Total ram usage:       16 bytes
  2109 ;; Hardware stack levels used:    1
  2110 ;; Hardware stack levels required when called:    1
  2111 ;; This function calls:
  2112 ;;		___ftpack
  2113 ;; This function is called by:
  2114 ;;		_sqrt
  2115 ;; This function uses a non-reentrant model
  2116 ;;
  2117                           psect	text317
  2118                           	file	"C:\Program Files\HI-TECH Software\PICC\9.83\sources\ftmul.c"
  2119                           	line	52
  2120                           	global	__size_of___ftmul
  2121  00CA                     	__size_of___ftmul	equ	__end_of___ftmul-___ftmul
  2122                           	
  2123  0392                     ___ftmul:	
  2124                           	opt	stack 13
  2125                           ; Regs used in ___ftmul: [wreg+status,2+status,0+pclath+cstack]
  2126                           	line	56
  2127                           	
  2128  0392                     l4678:	
  2129  0392  0020               	movlb 0	; select bank0
  2130  0393  082A               	movf	(___ftmul@f1),w
  2131  0394  00B0               	movwf	((??___ftmul+0)+0)
  2132  0395  082B               	movf	(___ftmul@f1+1),w
  2133  0396  00B1               	movwf	((??___ftmul+0)+0+1)
  2134  0397  082C               	movf	(___ftmul@f1+2),w
  2135  0398  00B2               	movwf	((??___ftmul+0)+0+2)
  2136  0399  1003               	clrc
  2137  039A  0D31               	rlf	(??___ftmul+0)+1,w
  2138  039B  0D32               	rlf	(??___ftmul+0)+2,w
  2139  039C  00B3               	movwf	(??___ftmul+3)+0
  2140  039D  0833               	movf	(??___ftmul+3)+0,w
  2141  039E  00B4               	movwf	(___ftmul@exp)
  2142  039F  08B4               	movf	((___ftmul@exp)),f
  2143  03A0  1D03               	skipz
  2144  03A1  2BA3               	goto	u3161
  2145  03A2  2BA4               	goto	u3160
  2146  03A3                     u3161:
  2147  03A3  2BAC               	goto	l4684
  2148  03A4                     u3160:
  2149                           	line	57
  2150                           	
  2151  03A4                     l4680:	
  2152  03A4  3000               	movlw	0x0
  2153  03A5  00AA               	movwf	(?___ftmul)
  2154  03A6  3000               	movlw	0x0
  2155  03A7  00AB               	movwf	(?___ftmul+1)
  2156  03A8  3000               	movlw	0x0
  2157  03A9  00AC               	movwf	(?___ftmul+2)
  2158  03AA  2C5B               	goto	l2741
  2159                           	
  2160  03AB                     l4682:	
  2161  03AB  2C5B               	goto	l2741
  2162                           	
  2163  03AC                     l2740:	
  2164                           	line	58
  2165                           	
  2166  03AC                     l4684:	
  2167  03AC  082D               	movf	(___ftmul@f2),w
  2168  03AD  00B0               	movwf	((??___ftmul+0)+0)
  2169  03AE  082E               	movf	(___ftmul@f2+1),w
  2170  03AF  00B1               	movwf	((??___ftmul+0)+0+1)
  2171  03B0  082F               	movf	(___ftmul@f2+2),w
  2172  03B1  00B2               	movwf	((??___ftmul+0)+0+2)
  2173  03B2  1003               	clrc
  2174  03B3  0D31               	rlf	(??___ftmul+0)+1,w
  2175  03B4  0D32               	rlf	(??___ftmul+0)+2,w
  2176  03B5  00B3               	movwf	(??___ftmul+3)+0
  2177  03B6  0833               	movf	(??___ftmul+3)+0,w
  2178  03B7  00B9               	movwf	(___ftmul@sign)
  2179  03B8  08B9               	movf	((___ftmul@sign)),f
  2180  03B9  1D03               	skipz
  2181  03BA  2BBC               	goto	u3171
  2182  03BB  2BBD               	goto	u3170
  2183  03BC                     u3171:
  2184  03BC  2BC5               	goto	l4690
  2185  03BD                     u3170:
  2186                           	line	59
  2187                           	
  2188  03BD                     l4686:	
  2189  03BD  3000               	movlw	0x0
  2190  03BE  00AA               	movwf	(?___ftmul)
  2191  03BF  3000               	movlw	0x0
  2192  03C0  00AB               	movwf	(?___ftmul+1)
  2193  03C1  3000               	movlw	0x0
  2194  03C2  00AC               	movwf	(?___ftmul+2)
  2195  03C3  2C5B               	goto	l2741
  2196                           	
  2197  03C4                     l4688:	
  2198  03C4  2C5B               	goto	l2741
  2199                           	
  2200  03C5                     l2742:	
  2201                           	line	60
  2202                           	
  2203  03C5                     l4690:	
  2204  03C5  0839               	movf	(___ftmul@sign),w
  2205  03C6  3E7B               	addlw	07Bh
  2206  03C7  00B0               	movwf	(??___ftmul+0)+0
  2207  03C8  0830               	movf	(??___ftmul+0)+0,w
  2208  03C9  07B4               	addwf	(___ftmul@exp),f
  2209                           	line	61
  2210  03CA  082A               	movf	(___ftmul@f1),w
  2211  03CB  00B0               	movwf	((??___ftmul+0)+0)
  2212  03CC  082B               	movf	(___ftmul@f1+1),w
  2213  03CD  00B1               	movwf	((??___ftmul+0)+0+1)
  2214  03CE  082C               	movf	(___ftmul@f1+2),w
  2215  03CF  00B2               	movwf	((??___ftmul+0)+0+2)
  2216  03D0  3010               	movlw	010h
  2217  03D1                     u3185:
  2218  03D1  36B2               	lsrf	(??___ftmul+0)+2,f
  2219  03D2  0CB1               	rrf	(??___ftmul+0)+1,f
  2220  03D3  0CB0               	rrf	(??___ftmul+0)+0,f
  2221  03D4                     u3180:
  2222  03D4  0B89               	decfsz	wreg,f
  2223  03D5  2BD1               	goto	u3185
  2224  03D6  0830               	movf	0+(??___ftmul+0)+0,w
  2225  03D7  00B3               	movwf	(??___ftmul+3)+0
  2226  03D8  0833               	movf	(??___ftmul+3)+0,w
  2227  03D9  00B9               	movwf	(___ftmul@sign)
  2228                           	line	62
  2229  03DA  082D               	movf	(___ftmul@f2),w
  2230  03DB  00B0               	movwf	((??___ftmul+0)+0)
  2231  03DC  082E               	movf	(___ftmul@f2+1),w
  2232  03DD  00B1               	movwf	((??___ftmul+0)+0+1)
  2233  03DE  082F               	movf	(___ftmul@f2+2),w
  2234  03DF  00B2               	movwf	((??___ftmul+0)+0+2)
  2235  03E0  3010               	movlw	010h
  2236  03E1                     u3195:
  2237  03E1  36B2               	lsrf	(??___ftmul+0)+2,f
  2238  03E2  0CB1               	rrf	(??___ftmul+0)+1,f
  2239  03E3  0CB0               	rrf	(??___ftmul+0)+0,f
  2240  03E4                     u3190:
  2241  03E4  0B89               	decfsz	wreg,f
  2242  03E5  2BE1               	goto	u3195
  2243  03E6  0830               	movf	0+(??___ftmul+0)+0,w
  2244  03E7  00B3               	movwf	(??___ftmul+3)+0
  2245  03E8  0833               	movf	(??___ftmul+3)+0,w
  2246  03E9  06B9               	xorwf	(___ftmul@sign),f
  2247                           	line	63
  2248  03EA  3080               	movlw	(080h)
  2249  03EB  00B0               	movwf	(??___ftmul+0)+0
  2250  03EC  0830               	movf	(??___ftmul+0)+0,w
  2251  03ED  05B9               	andwf	(___ftmul@sign),f
  2252                           	line	64
  2253                           	
  2254  03EE                     l4692:	
  2255  03EE  17AB               	bsf	(___ftmul@f1)+(15/8),(15)&7
  2256                           	line	66
  2257                           	
  2258  03EF                     l4694:	
  2259  03EF  17AE               	bsf	(___ftmul@f2)+(15/8),(15)&7
  2260                           	line	67
  2261                           	
  2262  03F0                     l4696:	
  2263  03F0  30FF               	movlw	0FFh
  2264  03F1  05AD               	andwf	(___ftmul@f2),f
  2265  03F2  30FF               	movlw	0FFh
  2266  03F3  05AE               	andwf	(___ftmul@f2+1),f
  2267  03F4  3000               	movlw	0
  2268  03F5  05AF               	andwf	(___ftmul@f2+2),f
  2269                           	line	68
  2270                           	
  2271  03F6                     l4698:	
  2272  03F6  3000               	movlw	0
  2273  03F7  00B5               	movwf	(___ftmul@f3_as_product)
  2274  03F8  3000               	movlw	0
  2275  03F9  00B6               	movwf	(___ftmul@f3_as_product+1)
  2276  03FA  3000               	movlw	0
  2277  03FB  00B7               	movwf	(___ftmul@f3_as_product+2)
  2278                           	line	69
  2279                           	
  2280  03FC                     l4700:	
  2281  03FC  3007               	movlw	(07h)
  2282  03FD  00B0               	movwf	(??___ftmul+0)+0
  2283  03FE  0830               	movf	(??___ftmul+0)+0,w
  2284  03FF  00B8               	movwf	(___ftmul@cntr)
  2285  0400  2C01               	goto	l4702
  2286                           	line	70
  2287                           	
  2288  0401                     l2743:	
  2289                           	line	71
  2290                           	
  2291  0401                     l4702:	
  2292  0401  1C2A               	btfss	(___ftmul@f1),(0)&7
  2293  0402  2C04               	goto	u3201
  2294  0403  2C05               	goto	u3200
  2295  0404                     u3201:
  2296  0404  2C0C               	goto	l4706
  2297  0405                     u3200:
  2298                           	line	72
  2299                           	
  2300  0405                     l4704:	
  2301  0405  082D               	movf	(___ftmul@f2),w
  2302  0406  07B5               	addwf	(___ftmul@f3_as_product),f
  2303  0407  082E               	movf	(___ftmul@f2+1),w
  2304  0408  3DB6               	addwfc	(___ftmul@f3_as_product+1),f
  2305  0409  082F               	movf	(___ftmul@f2+2),w
  2306  040A  3DB7               	addwfc	(___ftmul@f3_as_product+2),f
  2307  040B  2C0C               	goto	l4706
  2308                           	
  2309  040C                     l2744:	
  2310                           	line	73
  2311                           	
  2312  040C                     l4706:	
  2313  040C  3001               	movlw	01h
  2314  040D                     u3215:
  2315  040D  36AC               	lsrf	(___ftmul@f1+2),f
  2316  040E  0CAB               	rrf	(___ftmul@f1+1),f
  2317  040F  0CAA               	rrf	(___ftmul@f1),f
  2318  0410  0B89               	decfsz	wreg,f
  2319  0411  2C0D               	goto	u3215
  2320                           
  2321                           	line	74
  2322                           	
  2323  0412                     l4708:	
  2324  0412  3001               	movlw	01h
  2325  0413                     u3225:
  2326  0413  35AD               	lslf	(___ftmul@f2),f
  2327  0414  0DAE               	rlf	(___ftmul@f2+1),f
  2328  0415  0DAF               	rlf	(___ftmul@f2+2),f
  2329  0416  0B89               	decfsz	wreg,f
  2330  0417  2C13               	goto	u3225
  2331                           	line	75
  2332                           	
  2333  0418                     l4710:	
  2334  0418  3001               	movlw	low(01h)
  2335  0419  02B8               	subwf	(___ftmul@cntr),f
  2336  041A  1D03               	btfss	status,2
  2337  041B  2C1D               	goto	u3231
  2338  041C  2C1E               	goto	u3230
  2339  041D                     u3231:
  2340  041D  2C01               	goto	l4702
  2341  041E                     u3230:
  2342  041E  2C1F               	goto	l4712
  2343                           	
  2344  041F                     l2745:	
  2345                           	line	76
  2346                           	
  2347  041F                     l4712:	
  2348  041F  3009               	movlw	(09h)
  2349  0420  00B0               	movwf	(??___ftmul+0)+0
  2350  0421  0830               	movf	(??___ftmul+0)+0,w
  2351  0422  00B8               	movwf	(___ftmul@cntr)
  2352  0423  2C24               	goto	l4714
  2353                           	line	77
  2354                           	
  2355  0424                     l2746:	
  2356                           	line	78
  2357                           	
  2358  0424                     l4714:	
  2359  0424  1C2A               	btfss	(___ftmul@f1),(0)&7
  2360  0425  2C27               	goto	u3241
  2361  0426  2C28               	goto	u3240
  2362  0427                     u3241:
  2363  0427  2C2F               	goto	l4718
  2364  0428                     u3240:
  2365                           	line	79
  2366                           	
  2367  0428                     l4716:	
  2368  0428  082D               	movf	(___ftmul@f2),w
  2369  0429  07B5               	addwf	(___ftmul@f3_as_product),f
  2370  042A  082E               	movf	(___ftmul@f2+1),w
  2371  042B  3DB6               	addwfc	(___ftmul@f3_as_product+1),f
  2372  042C  082F               	movf	(___ftmul@f2+2),w
  2373  042D  3DB7               	addwfc	(___ftmul@f3_as_product+2),f
  2374  042E  2C2F               	goto	l4718
  2375                           	
  2376  042F                     l2747:	
  2377                           	line	80
  2378                           	
  2379  042F                     l4718:	
  2380  042F  3001               	movlw	01h
  2381  0430                     u3255:
  2382  0430  36AC               	lsrf	(___ftmul@f1+2),f
  2383  0431  0CAB               	rrf	(___ftmul@f1+1),f
  2384  0432  0CAA               	rrf	(___ftmul@f1),f
  2385  0433  0B89               	decfsz	wreg,f
  2386  0434  2C30               	goto	u3255
  2387                           
  2388                           	line	81
  2389                           	
  2390  0435                     l4720:	
  2391  0435  3001               	movlw	01h
  2392  0436                     u3265:
  2393  0436  36B7               	lsrf	(___ftmul@f3_as_product+2),f
  2394  0437  0CB6               	rrf	(___ftmul@f3_as_product+1),f
  2395  0438  0CB5               	rrf	(___ftmul@f3_as_product),f
  2396  0439  0B89               	decfsz	wreg,f
  2397  043A  2C36               	goto	u3265
  2398                           
  2399                           	line	82
  2400                           	
  2401  043B                     l4722:	
  2402  043B  3001               	movlw	low(01h)
  2403  043C  02B8               	subwf	(___ftmul@cntr),f
  2404  043D  1D03               	btfss	status,2
  2405  043E  2C40               	goto	u3271
  2406  043F  2C41               	goto	u3270
  2407  0440                     u3271:
  2408  0440  2C24               	goto	l4714
  2409  0441                     u3270:
  2410  0441  2C42               	goto	l4724
  2411                           	
  2412  0442                     l2748:	
  2413                           	line	83
  2414                           	
  2415  0442                     l4724:	
  2416  0442  0835               	movf	(___ftmul@f3_as_product),w
  2417  0443  00F0               	movwf	(?___ftpack)
  2418  0444  0836               	movf	(___ftmul@f3_as_product+1),w
  2419  0445  00F1               	movwf	(?___ftpack+1)
  2420  0446  0837               	movf	(___ftmul@f3_as_product+2),w
  2421  0447  00F2               	movwf	(?___ftpack+2)
  2422  0448  0834               	movf	(___ftmul@exp),w
  2423  0449  00B0               	movwf	(??___ftmul+0)+0
  2424  044A  0830               	movf	(??___ftmul+0)+0,w
  2425  044B  00F3               	movwf	0+(?___ftpack)+03h
  2426  044C  0839               	movf	(___ftmul@sign),w
  2427  044D  00B1               	movwf	(??___ftmul+1)+0
  2428  044E  0831               	movf	(??___ftmul+1)+0,w
  2429  044F  00F4               	movwf	0+(?___ftpack)+04h
  2430  0450  3181  21F3  3183   	fcall	___ftpack
  2431  0453  0870               	movf	(0+(?___ftpack)),w
  2432  0454  0020               	movlb 0	; select bank0
  2433  0455  00AA               	movwf	(?___ftmul)
  2434  0456  0871               	movf	(1+(?___ftpack)),w
  2435  0457  00AB               	movwf	(?___ftmul+1)
  2436  0458  0872               	movf	(2+(?___ftpack)),w
  2437  0459  00AC               	movwf	(?___ftmul+2)
  2438  045A  2C5B               	goto	l2741
  2439                           	
  2440  045B                     l4726:	
  2441                           	line	84
  2442                           	
  2443  045B                     l2741:	
  2444  045B  0008               	return
  2445                           	opt stack 0
  2446                           GLOBAL	__end_of___ftmul
  2447  045C                     	__end_of___ftmul:
  2448 ;; =============== function ___ftmul ends ============
  2449                           
  2450                           	signat	___ftmul,8315
  2451                           	global	___ftadd
  2452                           psect	text318,local,class=CODE,delta=2
  2453                           global __ptext318
  2454  0556                     __ptext318:
  2455                           
  2456 ;; *************** function ___ftadd *****************
  2457 ;; Defined at:
  2458 ;;		line 87 in file "C:\Program Files\HI-TECH Software\PICC\9.83\sources\ftadd.c"
  2459 ;; Parameters:    Size  Location     Type
  2460 ;;  f1              3   10[BANK0 ] float 
  2461 ;;  f2              3   13[BANK0 ] float 
  2462 ;; Auto vars:     Size  Location     Type
  2463 ;;  exp1            1   22[BANK0 ] unsigned char 
  2464 ;;  exp2            1   21[BANK0 ] unsigned char 
  2465 ;;  sign            1   20[BANK0 ] unsigned char 
  2466 ;; Return value:  Size  Location     Type
  2467 ;;                  3   10[BANK0 ] float 
  2468 ;; Registers used:
  2469 ;;		wreg, status,2, status,0, pclath, cstack
  2470 ;; Tracked objects:
  2471 ;;		On entry : 0/0
  2472 ;;		On exit  : 0/0
  2473 ;;		Unchanged: 0/0
  2474 ;; Data sizes:     COMMON   BANK0   BANK1
  2475 ;;      Params:         0       6       0
  2476 ;;      Locals:         0       3       0
  2477 ;;      Temps:          0       4       0
  2478 ;;      Totals:         0      13       0
  2479 ;;Total ram usage:       13 bytes
  2480 ;; Hardware stack levels used:    1
  2481 ;; Hardware stack levels required when called:    1
  2482 ;; This function calls:
  2483 ;;		___ftpack
  2484 ;; This function is called by:
  2485 ;;		___ftsub
  2486 ;; This function uses a non-reentrant model
  2487 ;;
  2488                           psect	text318
  2489                           	file	"C:\Program Files\HI-TECH Software\PICC\9.83\sources\ftadd.c"
  2490                           	line	87
  2491                           	global	__size_of___ftadd
  2492  0130                     	__size_of___ftadd	equ	__end_of___ftadd-___ftadd
  2493                           	
  2494  0556                     ___ftadd:	
  2495                           	opt	stack 12
  2496                           ; Regs used in ___ftadd: [wreg+status,2+status,0+pclath+cstack]
  2497                           	line	90
  2498                           	
  2499  0556                     l4608:	
  2500  0556  0020               	movlb 0	; select bank0
  2501  0557  082A               	movf	(___ftadd@f1),w
  2502  0558  00B0               	movwf	((??___ftadd+0)+0)
  2503  0559  082B               	movf	(___ftadd@f1+1),w
  2504  055A  00B1               	movwf	((??___ftadd+0)+0+1)
  2505  055B  082C               	movf	(___ftadd@f1+2),w
  2506  055C  00B2               	movwf	((??___ftadd+0)+0+2)
  2507  055D  1003               	clrc
  2508  055E  0D31               	rlf	(??___ftadd+0)+1,w
  2509  055F  0D32               	rlf	(??___ftadd+0)+2,w
  2510  0560  00B3               	movwf	(??___ftadd+3)+0
  2511  0561  0833               	movf	(??___ftadd+3)+0,w
  2512  0562  00B6               	movwf	(___ftadd@exp1)
  2513                           	line	91
  2514  0563  082D               	movf	(___ftadd@f2),w
  2515  0564  00B0               	movwf	((??___ftadd+0)+0)
  2516  0565  082E               	movf	(___ftadd@f2+1),w
  2517  0566  00B1               	movwf	((??___ftadd+0)+0+1)
  2518  0567  082F               	movf	(___ftadd@f2+2),w
  2519  0568  00B2               	movwf	((??___ftadd+0)+0+2)
  2520  0569  1003               	clrc
  2521  056A  0D31               	rlf	(??___ftadd+0)+1,w
  2522  056B  0D32               	rlf	(??___ftadd+0)+2,w
  2523  056C  00B3               	movwf	(??___ftadd+3)+0
  2524  056D  0833               	movf	(??___ftadd+3)+0,w
  2525  056E  00B5               	movwf	(___ftadd@exp2)
  2526                           	line	92
  2527                           	
  2528  056F                     l4610:	
  2529  056F  0836               	movf	(___ftadd@exp1),w
  2530  0570  1D03               	skipz
  2531  0571  2D73               	goto	u2930
  2532  0572  2D84               	goto	l4616
  2533  0573                     u2930:
  2534                           	
  2535  0573                     l4612:	
  2536  0573  0835               	movf	(___ftadd@exp2),w
  2537  0574  0236               	subwf	(___ftadd@exp1),w
  2538  0575  1803               	skipnc
  2539  0576  2D78               	goto	u2941
  2540  0577  2D79               	goto	u2940
  2541  0578                     u2941:
  2542  0578  2D8C               	goto	l4620
  2543  0579                     u2940:
  2544                           	
  2545  0579                     l4614:	
  2546  0579  0336               	decf	(___ftadd@exp1),w
  2547  057A  3AFF               	xorlw	0ffh
  2548  057B  0735               	addwf	(___ftadd@exp2),w
  2549  057C  00B0               	movwf	(??___ftadd+0)+0
  2550  057D  3019               	movlw	(019h)
  2551  057E  0230               	subwf	0+(??___ftadd+0)+0,w
  2552  057F  1C03               	skipc
  2553  0580  2D82               	goto	u2951
  2554  0581  2D83               	goto	u2950
  2555  0582                     u2951:
  2556  0582  2D8C               	goto	l4620
  2557  0583                     u2950:
  2558  0583  2D84               	goto	l4616
  2559                           	
  2560  0584                     l2688:	
  2561                           	line	93
  2562                           	
  2563  0584                     l4616:	
  2564  0584  082D               	movf	(___ftadd@f2),w
  2565  0585  00AA               	movwf	(?___ftadd)
  2566  0586  082E               	movf	(___ftadd@f2+1),w
  2567  0587  00AB               	movwf	(?___ftadd+1)
  2568  0588  082F               	movf	(___ftadd@f2+2),w
  2569  0589  00AC               	movwf	(?___ftadd+2)
  2570  058A  2E85               	goto	l2689
  2571                           	
  2572  058B                     l4618:	
  2573  058B  2E85               	goto	l2689
  2574                           	
  2575  058C                     l2686:	
  2576                           	line	94
  2577                           	
  2578  058C                     l4620:	
  2579  058C  0835               	movf	(___ftadd@exp2),w
  2580  058D  1D03               	skipz
  2581  058E  2D90               	goto	u2960
  2582  058F  2DA0               	goto	l2692
  2583  0590                     u2960:
  2584                           	
  2585  0590                     l4622:	
  2586  0590  0836               	movf	(___ftadd@exp1),w
  2587  0591  0235               	subwf	(___ftadd@exp2),w
  2588  0592  1803               	skipnc
  2589  0593  2D95               	goto	u2971
  2590  0594  2D96               	goto	u2970
  2591  0595                     u2971:
  2592  0595  2DA1               	goto	l4626
  2593  0596                     u2970:
  2594                           	
  2595  0596                     l4624:	
  2596  0596  0335               	decf	(___ftadd@exp2),w
  2597  0597  3AFF               	xorlw	0ffh
  2598  0598  0736               	addwf	(___ftadd@exp1),w
  2599  0599  00B0               	movwf	(??___ftadd+0)+0
  2600  059A  3019               	movlw	(019h)
  2601  059B  0230               	subwf	0+(??___ftadd+0)+0,w
  2602  059C  1C03               	skipc
  2603  059D  2D9F               	goto	u2981
  2604  059E  2DA0               	goto	u2980
  2605  059F                     u2981:
  2606  059F  2DA1               	goto	l4626
  2607  05A0                     u2980:
  2608                           	
  2609  05A0                     l2692:	
  2610                           	line	95
  2611  05A0  2E85               	goto	l2689
  2612                           	
  2613  05A1                     l2690:	
  2614                           	line	96
  2615                           	
  2616  05A1                     l4626:	
  2617  05A1  3006               	movlw	(06h)
  2618  05A2  00B0               	movwf	(??___ftadd+0)+0
  2619  05A3  0830               	movf	(??___ftadd+0)+0,w
  2620  05A4  00B4               	movwf	(___ftadd@sign)
  2621                           	line	97
  2622                           	
  2623  05A5                     l4628:	
  2624  05A5  1FAC               	btfss	(___ftadd@f1+2),(23)&7
  2625  05A6  2DA8               	goto	u2991
  2626  05A7  2DA9               	goto	u2990
  2627  05A8                     u2991:
  2628  05A8  2DAA               	goto	l2693
  2629  05A9                     u2990:
  2630                           	line	98
  2631                           	
  2632  05A9                     l4630:	
  2633  05A9  17B4               	bsf	(___ftadd@sign)+(7/8),(7)&7
  2634                           	
  2635  05AA                     l2693:	
  2636                           	line	99
  2637  05AA  1FAF               	btfss	(___ftadd@f2+2),(23)&7
  2638  05AB  2DAD               	goto	u3001
  2639  05AC  2DAE               	goto	u3000
  2640  05AD                     u3001:
  2641  05AD  2DAF               	goto	l2694
  2642  05AE                     u3000:
  2643                           	line	100
  2644                           	
  2645  05AE                     l4632:	
  2646  05AE  1734               	bsf	(___ftadd@sign)+(6/8),(6)&7
  2647                           	
  2648  05AF                     l2694:	
  2649                           	line	101
  2650  05AF  17AB               	bsf	(___ftadd@f1)+(15/8),(15)&7
  2651                           	line	102
  2652                           	
  2653  05B0                     l4634:	
  2654  05B0  30FF               	movlw	0FFh
  2655  05B1  05AA               	andwf	(___ftadd@f1),f
  2656  05B2  30FF               	movlw	0FFh
  2657  05B3  05AB               	andwf	(___ftadd@f1+1),f
  2658  05B4  3000               	movlw	0
  2659  05B5  05AC               	andwf	(___ftadd@f1+2),f
  2660                           	line	103
  2661                           	
  2662  05B6                     l4636:	
  2663  05B6  17AE               	bsf	(___ftadd@f2)+(15/8),(15)&7
  2664                           	line	104
  2665  05B7  30FF               	movlw	0FFh
  2666  05B8  05AD               	andwf	(___ftadd@f2),f
  2667  05B9  30FF               	movlw	0FFh
  2668  05BA  05AE               	andwf	(___ftadd@f2+1),f
  2669  05BB  3000               	movlw	0
  2670  05BC  05AF               	andwf	(___ftadd@f2+2),f
  2671                           	line	106
  2672  05BD  0835               	movf	(___ftadd@exp2),w
  2673  05BE  0236               	subwf	(___ftadd@exp1),w
  2674  05BF  1803               	skipnc
  2675  05C0  2DC2               	goto	u3011
  2676  05C1  2DC3               	goto	u3010
  2677  05C2                     u3011:
  2678  05C2  2DF0               	goto	l4648
  2679  05C3                     u3010:
  2680  05C3  2DC4               	goto	l4638
  2681                           	line	109
  2682                           	
  2683  05C4                     l2696:	
  2684                           	line	110
  2685                           	
  2686  05C4                     l4638:	
  2687  05C4  3001               	movlw	01h
  2688  05C5                     u3025:
  2689  05C5  35AD               	lslf	(___ftadd@f2),f
  2690  05C6  0DAE               	rlf	(___ftadd@f2+1),f
  2691  05C7  0DAF               	rlf	(___ftadd@f2+2),f
  2692  05C8  0B89               	decfsz	wreg,f
  2693  05C9  2DC5               	goto	u3025
  2694                           	line	111
  2695  05CA  3001               	movlw	low(01h)
  2696  05CB  02B5               	subwf	(___ftadd@exp2),f
  2697                           	line	112
  2698                           	
  2699  05CC                     l4640:	
  2700  05CC  0835               	movf	(___ftadd@exp2),w
  2701  05CD  0636               	xorwf	(___ftadd@exp1),w
  2702  05CE  1903               	skipnz
  2703  05CF  2DD1               	goto	u3031
  2704  05D0  2DD2               	goto	u3030
  2705  05D1                     u3031:
  2706  05D1  2DE8               	goto	l4646
  2707  05D2                     u3030:
  2708                           	
  2709  05D2                     l4642:	
  2710  05D2  3001               	movlw	low(01h)
  2711  05D3  02B4               	subwf	(___ftadd@sign),f
  2712  05D4  0834               	movf	((___ftadd@sign)),w
  2713  05D5  3907               	andlw	07h
  2714  05D6  1D03               	btfss	status,2
  2715  05D7  2DD9               	goto	u3041
  2716  05D8  2DDA               	goto	u3040
  2717  05D9                     u3041:
  2718  05D9  2DC4               	goto	l4638
  2719  05DA                     u3040:
  2720  05DA  2DE8               	goto	l4646
  2721                           	
  2722  05DB                     l2698:	
  2723  05DB  2DE8               	goto	l4646
  2724                           	
  2725  05DC                     l2699:	
  2726                           	line	113
  2727  05DC  2DE8               	goto	l4646
  2728                           	
  2729  05DD                     l2701:	
  2730                           	line	114
  2731                           	
  2732  05DD                     l4644:	
  2733  05DD  3001               	movlw	01h
  2734  05DE                     u3055:
  2735  05DE  36AC               	lsrf	(___ftadd@f1+2),f
  2736  05DF  0CAB               	rrf	(___ftadd@f1+1),f
  2737  05E0  0CAA               	rrf	(___ftadd@f1),f
  2738  05E1  0B89               	decfsz	wreg,f
  2739  05E2  2DDE               	goto	u3055
  2740                           
  2741                           	line	115
  2742  05E3  3001               	movlw	(01h)
  2743  05E4  00B0               	movwf	(??___ftadd+0)+0
  2744  05E5  0830               	movf	(??___ftadd+0)+0,w
  2745  05E6  07B6               	addwf	(___ftadd@exp1),f
  2746  05E7  2DE8               	goto	l4646
  2747                           	line	116
  2748                           	
  2749  05E8                     l2700:	
  2750                           	line	113
  2751                           	
  2752  05E8                     l4646:	
  2753  05E8  0836               	movf	(___ftadd@exp1),w
  2754  05E9  0635               	xorwf	(___ftadd@exp2),w
  2755  05EA  1D03               	skipz
  2756  05EB  2DED               	goto	u3061
  2757  05EC  2DEE               	goto	u3060
  2758  05ED                     u3061:
  2759  05ED  2DDD               	goto	l4644
  2760  05EE                     u3060:
  2761  05EE  2E23               	goto	l2703
  2762                           	
  2763  05EF                     l2702:	
  2764                           	line	117
  2765  05EF  2E23               	goto	l2703
  2766                           	
  2767  05F0                     l2695:	
  2768                           	
  2769  05F0                     l4648:	
  2770  05F0  0836               	movf	(___ftadd@exp1),w
  2771  05F1  0235               	subwf	(___ftadd@exp2),w
  2772  05F2  1803               	skipnc
  2773  05F3  2DF5               	goto	u3071
  2774  05F4  2DF6               	goto	u3070
  2775  05F5                     u3071:
  2776  05F5  2E23               	goto	l2703
  2777  05F6                     u3070:
  2778  05F6  2DF7               	goto	l4650
  2779                           	line	120
  2780                           	
  2781  05F7                     l2705:	
  2782                           	line	121
  2783                           	
  2784  05F7                     l4650:	
  2785  05F7  3001               	movlw	01h
  2786  05F8                     u3085:
  2787  05F8  35AA               	lslf	(___ftadd@f1),f
  2788  05F9  0DAB               	rlf	(___ftadd@f1+1),f
  2789  05FA  0DAC               	rlf	(___ftadd@f1+2),f
  2790  05FB  0B89               	decfsz	wreg,f
  2791  05FC  2DF8               	goto	u3085
  2792                           	line	122
  2793  05FD  3001               	movlw	low(01h)
  2794  05FE  02B6               	subwf	(___ftadd@exp1),f
  2795                           	line	123
  2796                           	
  2797  05FF                     l4652:	
  2798  05FF  0835               	movf	(___ftadd@exp2),w
  2799  0600  0636               	xorwf	(___ftadd@exp1),w
  2800  0601  1903               	skipnz
  2801  0602  2E04               	goto	u3091
  2802  0603  2E05               	goto	u3090
  2803  0604                     u3091:
  2804  0604  2E1B               	goto	l4658
  2805  0605                     u3090:
  2806                           	
  2807  0605                     l4654:	
  2808  0605  3001               	movlw	low(01h)
  2809  0606  02B4               	subwf	(___ftadd@sign),f
  2810  0607  0834               	movf	((___ftadd@sign)),w
  2811  0608  3907               	andlw	07h
  2812  0609  1D03               	btfss	status,2
  2813  060A  2E0C               	goto	u3101
  2814  060B  2E0D               	goto	u3100
  2815  060C                     u3101:
  2816  060C  2DF7               	goto	l4650
  2817  060D                     u3100:
  2818  060D  2E1B               	goto	l4658
  2819                           	
  2820  060E                     l2707:	
  2821  060E  2E1B               	goto	l4658
  2822                           	
  2823  060F                     l2708:	
  2824                           	line	124
  2825  060F  2E1B               	goto	l4658
  2826                           	
  2827  0610                     l2710:	
  2828                           	line	125
  2829                           	
  2830  0610                     l4656:	
  2831  0610  3001               	movlw	01h
  2832  0611                     u3115:
  2833  0611  36AF               	lsrf	(___ftadd@f2+2),f
  2834  0612  0CAE               	rrf	(___ftadd@f2+1),f
  2835  0613  0CAD               	rrf	(___ftadd@f2),f
  2836  0614  0B89               	decfsz	wreg,f
  2837  0615  2E11               	goto	u3115
  2838                           
  2839                           	line	126
  2840  0616  3001               	movlw	(01h)
  2841  0617  00B0               	movwf	(??___ftadd+0)+0
  2842  0618  0830               	movf	(??___ftadd+0)+0,w
  2843  0619  07B5               	addwf	(___ftadd@exp2),f
  2844  061A  2E1B               	goto	l4658
  2845                           	line	127
  2846                           	
  2847  061B                     l2709:	
  2848                           	line	124
  2849                           	
  2850  061B                     l4658:	
  2851  061B  0836               	movf	(___ftadd@exp1),w
  2852  061C  0635               	xorwf	(___ftadd@exp2),w
  2853  061D  1D03               	skipz
  2854  061E  2E20               	goto	u3121
  2855  061F  2E21               	goto	u3120
  2856  0620                     u3121:
  2857  0620  2E10               	goto	l4656
  2858  0621                     u3120:
  2859  0621  2E23               	goto	l2703
  2860                           	
  2861  0622                     l2711:	
  2862  0622  2E23               	goto	l2703
  2863                           	line	128
  2864                           	
  2865  0623                     l2704:	
  2866                           	line	129
  2867                           	
  2868  0623                     l2703:	
  2869  0623  1FB4               	btfss	(___ftadd@sign),(7)&7
  2870  0624  2E26               	goto	u3131
  2871  0625  2E27               	goto	u3130
  2872  0626                     u3131:
  2873  0626  2E38               	goto	l4662
  2874  0627                     u3130:
  2875                           	line	131
  2876                           	
  2877  0627                     l4660:	
  2878  0627  30FF               	movlw	0FFh
  2879  0628  06AA               	xorwf	(___ftadd@f1),f
  2880  0629  30FF               	movlw	0FFh
  2881  062A  06AB               	xorwf	(___ftadd@f1+1),f
  2882  062B  30FF               	movlw	0FFh
  2883  062C  06AC               	xorwf	(___ftadd@f1+2),f
  2884                           	line	132
  2885  062D  3001               	movlw	01h
  2886  062E  07AA               	addwf	(___ftadd@f1),f
  2887  062F  3000               	movlw	0
  2888  0630  1803               	skipnc
  2889  0631  3001               movlw 1
  2890  0632  07AB               	addwf	(___ftadd@f1+1),f
  2891  0633  3000               	movlw	0
  2892  0634  1803               	skipnc
  2893  0635  3001               movlw 1
  2894  0636  07AC               	addwf	(___ftadd@f1+2),f
  2895  0637  2E38               	goto	l4662
  2896                           	line	133
  2897                           	
  2898  0638                     l2712:	
  2899                           	line	134
  2900                           	
  2901  0638                     l4662:	
  2902  0638  1F34               	btfss	(___ftadd@sign),(6)&7
  2903  0639  2E3B               	goto	u3141
  2904  063A  2E3C               	goto	u3140
  2905  063B                     u3141:
  2906  063B  2E4D               	goto	l4666
  2907  063C                     u3140:
  2908                           	line	136
  2909                           	
  2910  063C                     l4664:	
  2911  063C  30FF               	movlw	0FFh
  2912  063D  06AD               	xorwf	(___ftadd@f2),f
  2913  063E  30FF               	movlw	0FFh
  2914  063F  06AE               	xorwf	(___ftadd@f2+1),f
  2915  0640  30FF               	movlw	0FFh
  2916  0641  06AF               	xorwf	(___ftadd@f2+2),f
  2917                           	line	137
  2918  0642  3001               	movlw	01h
  2919  0643  07AD               	addwf	(___ftadd@f2),f
  2920  0644  3000               	movlw	0
  2921  0645  1803               	skipnc
  2922  0646  3001               movlw 1
  2923  0647  07AE               	addwf	(___ftadd@f2+1),f
  2924  0648  3000               	movlw	0
  2925  0649  1803               	skipnc
  2926  064A  3001               movlw 1
  2927  064B  07AF               	addwf	(___ftadd@f2+2),f
  2928  064C  2E4D               	goto	l4666
  2929                           	line	138
  2930                           	
  2931  064D                     l2713:	
  2932                           	line	139
  2933                           	
  2934  064D                     l4666:	
  2935  064D  01B4               	clrf	(___ftadd@sign)
  2936                           	line	140
  2937  064E  082A               	movf	(___ftadd@f1),w
  2938  064F  07AD               	addwf	(___ftadd@f2),f
  2939  0650  082B               	movf	(___ftadd@f1+1),w
  2940  0651  3DAE               	addwfc	(___ftadd@f2+1),f
  2941  0652  082C               	movf	(___ftadd@f1+2),w
  2942  0653  3DAF               	addwfc	(___ftadd@f2+2),f
  2943                           	line	141
  2944                           	
  2945  0654                     l4668:	
  2946  0654  1FAF               	btfss	(___ftadd@f2+2),(23)&7
  2947  0655  2E57               	goto	u3151
  2948  0656  2E58               	goto	u3150
  2949  0657                     u3151:
  2950  0657  2E6C               	goto	l4674
  2951  0658                     u3150:
  2952                           	line	142
  2953                           	
  2954  0658                     l4670:	
  2955  0658  30FF               	movlw	0FFh
  2956  0659  06AD               	xorwf	(___ftadd@f2),f
  2957  065A  30FF               	movlw	0FFh
  2958  065B  06AE               	xorwf	(___ftadd@f2+1),f
  2959  065C  30FF               	movlw	0FFh
  2960  065D  06AF               	xorwf	(___ftadd@f2+2),f
  2961                           	line	143
  2962  065E  3001               	movlw	01h
  2963  065F  07AD               	addwf	(___ftadd@f2),f
  2964  0660  3000               	movlw	0
  2965  0661  1803               	skipnc
  2966  0662  3001               movlw 1
  2967  0663  07AE               	addwf	(___ftadd@f2+1),f
  2968  0664  3000               	movlw	0
  2969  0665  1803               	skipnc
  2970  0666  3001               movlw 1
  2971  0667  07AF               	addwf	(___ftadd@f2+2),f
  2972                           	line	144
  2973                           	
  2974  0668                     l4672:	
  2975  0668  01B4               	clrf	(___ftadd@sign)
  2976  0669  1403               	bsf	status,0
  2977  066A  0DB4               	rlf	(___ftadd@sign),f
  2978  066B  2E6C               	goto	l4674
  2979                           	line	145
  2980                           	
  2981  066C                     l2714:	
  2982                           	line	146
  2983                           	
  2984  066C                     l4674:	
  2985  066C  082D               	movf	(___ftadd@f2),w
  2986  066D  00F0               	movwf	(?___ftpack)
  2987  066E  082E               	movf	(___ftadd@f2+1),w
  2988  066F  00F1               	movwf	(?___ftpack+1)
  2989  0670  082F               	movf	(___ftadd@f2+2),w
  2990  0671  00F2               	movwf	(?___ftpack+2)
  2991  0672  0836               	movf	(___ftadd@exp1),w
  2992  0673  00B0               	movwf	(??___ftadd+0)+0
  2993  0674  0830               	movf	(??___ftadd+0)+0,w
  2994  0675  00F3               	movwf	0+(?___ftpack)+03h
  2995  0676  0834               	movf	(___ftadd@sign),w
  2996  0677  00B1               	movwf	(??___ftadd+1)+0
  2997  0678  0831               	movf	(??___ftadd+1)+0,w
  2998  0679  00F4               	movwf	0+(?___ftpack)+04h
  2999  067A  3181  21F3  3185   	fcall	___ftpack
  3000  067D  0870               	movf	(0+(?___ftpack)),w
  3001  067E  0020               	movlb 0	; select bank0
  3002  067F  00AA               	movwf	(?___ftadd)
  3003  0680  0871               	movf	(1+(?___ftpack)),w
  3004  0681  00AB               	movwf	(?___ftadd+1)
  3005  0682  0872               	movf	(2+(?___ftpack)),w
  3006  0683  00AC               	movwf	(?___ftadd+2)
  3007  0684  2E85               	goto	l2689
  3008                           	
  3009  0685                     l4676:	
  3010                           	line	148
  3011                           	
  3012  0685                     l2689:	
  3013  0685  0008               	return
  3014                           	opt stack 0
  3015                           GLOBAL	__end_of___ftadd
  3016  0686                     	__end_of___ftadd:
  3017 ;; =============== function ___ftadd ends ============
  3018                           
  3019                           	signat	___ftadd,8315
  3020                           	global	_ADC_CONV
  3021                           psect	text319,local,class=CODE,delta=2
  3022                           global __ptext319
  3023  0266                     __ptext319:
  3024                           
  3025 ;; *************** function _ADC_CONV *****************
  3026 ;; Defined at:
  3027 ;;		line 155 in file "D:\DVA\projects\Intelligent helmet for accident detection\programs\import\topv3\adc.c"
  3028 ;; Parameters:    Size  Location     Type
  3029 ;;		None
  3030 ;; Auto vars:     Size  Location     Type
  3031 ;;		None
  3032 ;; Return value:  Size  Location     Type
  3033 ;;		None               void
  3034 ;; Registers used:
  3035 ;;		wreg, status,2, status,0, btemp+1, pclath, cstack
  3036 ;; Tracked objects:
  3037 ;;		On entry : 0/0
  3038 ;;		On exit  : 0/0
  3039 ;;		Unchanged: 0/0
  3040 ;; Data sizes:     COMMON   BANK0   BANK1
  3041 ;;      Params:         0       0       0
  3042 ;;      Locals:         0       0       0
  3043 ;;      Temps:          4       0       0
  3044 ;;      Totals:         4       0       0
  3045 ;;Total ram usage:        4 bytes
  3046 ;; Hardware stack levels used:    1
  3047 ;; Hardware stack levels required when called:    1
  3048 ;; This function calls:
  3049 ;;		_delay
  3050 ;; This function is called by:
  3051 ;;		_main
  3052 ;; This function uses a non-reentrant model
  3053 ;;
  3054                           psect	text319
  3055                           	file	"D:\DVA\projects\Intelligent helmet for accident detection\programs\import\topv3\a
                                 dc.c"
  3056                           	line	155
  3057                           	global	__size_of_ADC_CONV
  3058  008D                     	__size_of_ADC_CONV	equ	__end_of_ADC_CONV-_ADC_CONV
  3059                           	
  3060  0266                     _ADC_CONV:	
  3061                           	opt	stack 14
  3062                           ; Regs used in _ADC_CONV: [wreg+status,2+status,0+btemp+1+pclath+cstack]
  3063                           	line	158
  3064                           	
  3065  0266                     l4568:	
  3066                           ;adc.c: 158: ADCON0bits.CHS = 2;
  3067  0266  0021               	movlb 1	; select bank1
  3068  0267  081D               	movf	(157)^080h,w	;volatile
  3069  0268  3983               	andlw	not (((1<<5)-1)<<2)
  3070  0269  3808               	iorlw	(02h & ((1<<5)-1))<<2
  3071  026A  009D               	movwf	(157)^080h	;volatile
  3072                           	line	159
  3073                           	
  3074  026B                     l4570:	
  3075                           ;adc.c: 159: ADCON0bits.ADON= 1;
  3076  026B  141D               	bsf	(157)^080h,0	;volatile
  3077                           	line	160
  3078                           	
  3079  026C                     l4572:	
  3080                           ;adc.c: 160: PIR1bits.ADIF= 0;
  3081  026C  0020               	movlb 0	; select bank0
  3082  026D  1311               	bcf	(17),6	;volatile
  3083                           	line	161
  3084                           	
  3085  026E                     l4574:	
  3086                           ;adc.c: 161: delay(10);
  3087  026E  300A               	movlw	low(0Ah)
  3088  026F  00F0               	movwf	(?_delay)
  3089  0270  3000               	movlw	high(0Ah)
  3090  0271  00F1               	movwf	((?_delay))+1
  3091  0272  3180  20F6  3182   	fcall	_delay
  3092                           	line	162
  3093                           	
  3094  0275                     l4576:	
  3095                           ;adc.c: 162: ADCON0bits.GO = 1;
  3096  0275  0021               	movlb 1	; select bank1
  3097  0276  149D               	bsf	(157)^080h,1	;volatile
  3098                           	line	163
  3099                           ;adc.c: 163: while(ADCON0bits.GO == 1);
  3100  0277  2A78               	goto	l1388
  3101                           	
  3102  0278                     l1389:	
  3103                           	
  3104  0278                     l1388:	
  3105  0278  189D               	btfsc	(157)^080h,1	;volatile
  3106  0279  2A7B               	goto	u2891
  3107  027A  2A7C               	goto	u2890
  3108  027B                     u2891:
  3109  027B  2A78               	goto	l1388
  3110  027C                     u2890:
  3111  027C  2A7D               	goto	l4578
  3112                           	
  3113  027D                     l1390:	
  3114                           	line	164
  3115                           	
  3116  027D                     l4578:	
  3117                           ;adc.c: 164: adcrx= (ADRESH<<8)+ADRESL;
  3118  027D  081B               	movf	(155)^080h,w	;volatile
  3119  027E  00F4               	movwf	(??_ADC_CONV+0)+0
  3120  027F  01F5               	clrf	(??_ADC_CONV+0)+0+1
  3121  0280  081C               	movf	(156)^080h,w	;volatile
  3122  0281  00F6               	movwf	(??_ADC_CONV+2)+0
  3123  0282  01F7               	clrf	(??_ADC_CONV+2)+0+1
  3124  0283  0876               	movf	(??_ADC_CONV+2)+0,w
  3125  0284  00F7               	movwf	(??_ADC_CONV+2)+1
  3126  0285  01F6               	clrf	(??_ADC_CONV+2)+0
  3127  0286  0874               	movf	0+(??_ADC_CONV+0)+0,w
  3128  0287  0776               	addwf	0+(??_ADC_CONV+2)+0,w
  3129  0288  0020               	movlb 0	; select bank0
  3130  0289  00EB               	movwf	(_adcrx)
  3131  028A  0875               	movf	1+(??_ADC_CONV+0)+0,w
  3132  028B  3D77               	addwfc	1+(??_ADC_CONV+2)+0,w
  3133  028C  00EC               	movwf	1+(_adcrx)
  3134                           	line	165
  3135                           	
  3136  028D                     l4580:	
  3137                           ;adc.c: 165: PIR1bits.ADIF= 0;
  3138  028D  1311               	bcf	(17),6	;volatile
  3139                           	line	168
  3140                           	
  3141  028E                     l4582:	
  3142                           ;adc.c: 168: ADCON0bits.CHS = 3;
  3143  028E  0021               	movlb 1	; select bank1
  3144  028F  081D               	movf	(157)^080h,w	;volatile
  3145  0290  3983               	andlw	not (((1<<5)-1)<<2)
  3146  0291  380C               	iorlw	(03h & ((1<<5)-1))<<2
  3147  0292  009D               	movwf	(157)^080h	;volatile
  3148                           	line	169
  3149                           	
  3150  0293                     l4584:	
  3151                           ;adc.c: 169: ADCON0bits.ADON= 1;
  3152  0293  141D               	bsf	(157)^080h,0	;volatile
  3153                           	line	170
  3154                           	
  3155  0294                     l4586:	
  3156                           ;adc.c: 170: PIR1bits.ADIF= 0;
  3157  0294  0020               	movlb 0	; select bank0
  3158  0295  1311               	bcf	(17),6	;volatile
  3159                           	line	171
  3160                           	
  3161  0296                     l4588:	
  3162                           ;adc.c: 171: delay(10);
  3163  0296  300A               	movlw	low(0Ah)
  3164  0297  00F0               	movwf	(?_delay)
  3165  0298  3000               	movlw	high(0Ah)
  3166  0299  00F1               	movwf	((?_delay))+1
  3167  029A  3180  20F6  3182   	fcall	_delay
  3168                           	line	172
  3169                           	
  3170  029D                     l4590:	
  3171                           ;adc.c: 172: ADCON0bits.GO = 1;
  3172  029D  0021               	movlb 1	; select bank1
  3173  029E  149D               	bsf	(157)^080h,1	;volatile
  3174                           	line	173
  3175                           ;adc.c: 173: while(ADCON0bits.GO == 1);
  3176  029F  2AA0               	goto	l1391
  3177                           	
  3178  02A0                     l1392:	
  3179                           	
  3180  02A0                     l1391:	
  3181  02A0  189D               	btfsc	(157)^080h,1	;volatile
  3182  02A1  2AA3               	goto	u2901
  3183  02A2  2AA4               	goto	u2900
  3184  02A3                     u2901:
  3185  02A3  2AA0               	goto	l1391
  3186  02A4                     u2900:
  3187  02A4  2AA5               	goto	l4592
  3188                           	
  3189  02A5                     l1393:	
  3190                           	line	174
  3191                           	
  3192  02A5                     l4592:	
  3193                           ;adc.c: 174: adcry= (ADRESH<<8)+ADRESL;
  3194  02A5  081B               	movf	(155)^080h,w	;volatile
  3195  02A6  00F4               	movwf	(??_ADC_CONV+0)+0
  3196  02A7  01F5               	clrf	(??_ADC_CONV+0)+0+1
  3197  02A8  081C               	movf	(156)^080h,w	;volatile
  3198  02A9  00F6               	movwf	(??_ADC_CONV+2)+0
  3199  02AA  01F7               	clrf	(??_ADC_CONV+2)+0+1
  3200  02AB  0876               	movf	(??_ADC_CONV+2)+0,w
  3201  02AC  00F7               	movwf	(??_ADC_CONV+2)+1
  3202  02AD  01F6               	clrf	(??_ADC_CONV+2)+0
  3203  02AE  0874               	movf	0+(??_ADC_CONV+0)+0,w
  3204  02AF  0776               	addwf	0+(??_ADC_CONV+2)+0,w
  3205  02B0  0020               	movlb 0	; select bank0
  3206  02B1  00ED               	movwf	(_adcry)
  3207  02B2  0875               	movf	1+(??_ADC_CONV+0)+0,w
  3208  02B3  3D77               	addwfc	1+(??_ADC_CONV+2)+0,w
  3209  02B4  00EE               	movwf	1+(_adcry)
  3210                           	line	175
  3211                           	
  3212  02B5                     l4594:	
  3213                           ;adc.c: 175: PIR1bits.ADIF= 0;
  3214  02B5  1311               	bcf	(17),6	;volatile
  3215                           	line	177
  3216                           	
  3217  02B6                     l4596:	
  3218                           ;adc.c: 177: if(adcrx >= 0x1FF )
  3219  02B6  3001               	movlw	high(01FFh)
  3220  02B7  026C               	subwf	(_adcrx+1),w
  3221  02B8  30FF               	movlw	low(01FFh)
  3222  02B9  1903               	skipnz
  3223  02BA  026B               	subwf	(_adcrx),w
  3224  02BB  1C03               	skipc
  3225  02BC  2ABE               	goto	u2911
  3226  02BD  2ABF               	goto	u2910
  3227  02BE                     u2911:
  3228  02BE  2AC6               	goto	l4600
  3229  02BF                     u2910:
  3230                           	line	179
  3231                           	
  3232  02BF                     l4598:	
  3233                           ;adc.c: 178: {
  3234                           ;adc.c: 179: adcrx= adcrx - 0x1FF;
  3235  02BF  086B               	movf	(_adcrx),w
  3236  02C0  3E01               	addlw	low(0FE01h)
  3237  02C1  00EB               	movwf	(_adcrx)
  3238  02C2  30FE               	movlw	high(0FE01h)
  3239  02C3  3D6C               	addwfc	(_adcrx+1),w
  3240  02C4  00EC               	movwf	1+(_adcrx)
  3241                           	line	180
  3242                           ;adc.c: 180: }
  3243  02C5  2AD4               	goto	l4602
  3244                           	line	181
  3245                           	
  3246  02C6                     l1394:	
  3247                           	line	183
  3248                           	
  3249  02C6                     l4600:	
  3250                           ;adc.c: 181: else
  3251                           ;adc.c: 182: {
  3252                           ;adc.c: 183: adcrx= 0x1FF - adcrx ;
  3253  02C6  096B               	comf	(_adcrx),w
  3254  02C7  00F4               	movwf	(??_ADC_CONV+0)+0
  3255  02C8  096C               	comf	(_adcrx+1),w
  3256  02C9  00F5               	movwf	((??_ADC_CONV+0)+0+1)
  3257  02CA  0AF4               	incf	(??_ADC_CONV+0)+0,f
  3258  02CB  1903               	skipnz
  3259  02CC  0AF5               	incf	((??_ADC_CONV+0)+0+1),f
  3260  02CD  0874               	movf	0+(??_ADC_CONV+0)+0,w
  3261  02CE  3EFF               	addlw	low(01FFh)
  3262  02CF  00EB               	movwf	(_adcrx)
  3263  02D0  3001               	movlw	high(01FFh)
  3264  02D1  3D75               	addwfc	1+(??_ADC_CONV+0)+0,w
  3265  02D2  00EC               	movwf	1+(_adcrx)
  3266  02D3  2AD4               	goto	l4602
  3267                           	line	184
  3268                           	
  3269  02D4                     l1395:	
  3270                           	line	185
  3271                           	
  3272  02D4                     l4602:	
  3273                           ;adc.c: 184: }
  3274                           ;adc.c: 185: if(adcry >= 0x1FF )
  3275  02D4  3001               	movlw	high(01FFh)
  3276  02D5  026E               	subwf	(_adcry+1),w
  3277  02D6  30FF               	movlw	low(01FFh)
  3278  02D7  1903               	skipnz
  3279  02D8  026D               	subwf	(_adcry),w
  3280  02D9  1C03               	skipc
  3281  02DA  2ADC               	goto	u2921
  3282  02DB  2ADD               	goto	u2920
  3283  02DC                     u2921:
  3284  02DC  2AE4               	goto	l4606
  3285  02DD                     u2920:
  3286                           	line	187
  3287                           	
  3288  02DD                     l4604:	
  3289                           ;adc.c: 186: {
  3290                           ;adc.c: 187: adcry= adcry - 0x1FF;
  3291  02DD  086D               	movf	(_adcry),w
  3292  02DE  3E01               	addlw	low(0FE01h)
  3293  02DF  00ED               	movwf	(_adcry)
  3294  02E0  30FE               	movlw	high(0FE01h)
  3295  02E1  3D6E               	addwfc	(_adcry+1),w
  3296  02E2  00EE               	movwf	1+(_adcry)
  3297                           	line	188
  3298                           ;adc.c: 188: }
  3299  02E3  2AF2               	goto	l1398
  3300                           	line	189
  3301                           	
  3302  02E4                     l1396:	
  3303                           	line	191
  3304                           	
  3305  02E4                     l4606:	
  3306                           ;adc.c: 189: else
  3307                           ;adc.c: 190: {
  3308                           ;adc.c: 191: adcry= 0x1FF - adcry ;
  3309  02E4  096D               	comf	(_adcry),w
  3310  02E5  00F4               	movwf	(??_ADC_CONV+0)+0
  3311  02E6  096E               	comf	(_adcry+1),w
  3312  02E7  00F5               	movwf	((??_ADC_CONV+0)+0+1)
  3313  02E8  0AF4               	incf	(??_ADC_CONV+0)+0,f
  3314  02E9  1903               	skipnz
  3315  02EA  0AF5               	incf	((??_ADC_CONV+0)+0+1),f
  3316  02EB  0874               	movf	0+(??_ADC_CONV+0)+0,w
  3317  02EC  3EFF               	addlw	low(01FFh)
  3318  02ED  00ED               	movwf	(_adcry)
  3319  02EE  3001               	movlw	high(01FFh)
  3320  02EF  3D75               	addwfc	1+(??_ADC_CONV+0)+0,w
  3321  02F0  00EE               	movwf	1+(_adcry)
  3322  02F1  2AF2               	goto	l1398
  3323                           	line	192
  3324                           	
  3325  02F2                     l1397:	
  3326                           	line	195
  3327                           	
  3328  02F2                     l1398:	
  3329  02F2  0008               	return
  3330                           	opt stack 0
  3331                           GLOBAL	__end_of_ADC_CONV
  3332  02F3                     	__end_of_ADC_CONV:
  3333 ;; =============== function _ADC_CONV ends ============
  3334                           
  3335                           	signat	_ADC_CONV,88
  3336                           	global	___ftge
  3337                           psect	text320,local,class=CODE,delta=2
  3338                           global __ptext320
  3339  01A9                     __ptext320:
  3340                           
  3341 ;; *************** function ___ftge *****************
  3342 ;; Defined at:
  3343 ;;		line 5 in file "C:\Program Files\HI-TECH Software\PICC\9.83\sources\ftge.c"
  3344 ;; Parameters:    Size  Location     Type
  3345 ;;  ff1             3    0[COMMON] float 
  3346 ;;  ff2             3    3[COMMON] float 
  3347 ;; Auto vars:     Size  Location     Type
  3348 ;;		None
  3349 ;; Return value:  Size  Location     Type
  3350 ;;		None               void
  3351 ;; Registers used:
  3352 ;;		wreg, status,2, status,0
  3353 ;; Tracked objects:
  3354 ;;		On entry : 0/0
  3355 ;;		On exit  : 0/0
  3356 ;;		Unchanged: 0/0
  3357 ;; Data sizes:     COMMON   BANK0   BANK1
  3358 ;;      Params:         6       0       0
  3359 ;;      Locals:         0       0       0
  3360 ;;      Temps:          3       0       0
  3361 ;;      Totals:         9       0       0
  3362 ;;Total ram usage:        9 bytes
  3363 ;; Hardware stack levels used:    1
  3364 ;; This function calls:
  3365 ;;		Nothing
  3366 ;; This function is called by:
  3367 ;;		_sqrt
  3368 ;; This function uses a non-reentrant model
  3369 ;;
  3370                           psect	text320
  3371                           	file	"C:\Program Files\HI-TECH Software\PICC\9.83\sources\ftge.c"
  3372                           	line	5
  3373                           	global	__size_of___ftge
  3374  004A                     	__size_of___ftge	equ	__end_of___ftge-___ftge
  3375                           	
  3376  01A9                     ___ftge:	
  3377                           	opt	stack 14
  3378                           ; Regs used in ___ftge: [wreg+status,2+status,0]
  3379                           	line	6
  3380                           	
  3381  01A9                     l4502:	
  3382  01A9  1FF2               	btfss	(___ftge@ff1+2),(23)&7
  3383  01AA  29AC               	goto	u2801
  3384  01AB  29AD               	goto	u2800
  3385  01AC                     u2801:
  3386  01AC  29C2               	goto	l4506
  3387  01AD                     u2800:
  3388                           	line	7
  3389                           	
  3390  01AD                     l4504:	
  3391  01AD  0970               	comf	(___ftge@ff1),w
  3392  01AE  00F6               	movwf	(??___ftge+0)+0
  3393  01AF  0971               	comf	(___ftge@ff1+1),w
  3394  01B0  00F7               	movwf	((??___ftge+0)+0+1)
  3395  01B1  0972               	comf	(___ftge@ff1+2),w
  3396  01B2  00F8               	movwf	((??___ftge+0)+0+2)
  3397  01B3  0AF6               	incf	(??___ftge+0)+0,f
  3398  01B4  1903               	skipnz
  3399  01B5  0AF7               	incf	((??___ftge+0)+0+1),f
  3400  01B6  1903               	skipnz
  3401  01B7  0AF8               	incf	((??___ftge+0)+0+2),f
  3402  01B8  3000               	movlw	0
  3403  01B9  0776               	addwf	(0+(??___ftge+0)+0),w
  3404  01BA  00F0               	movwf	(___ftge@ff1)
  3405  01BB  3000               	movlw	0
  3406  01BC  3D77               	addwfc	(1+(??___ftge+0)+0),w
  3407  01BD  00F1               	movwf	1+(___ftge@ff1)
  3408  01BE  3080               	movlw	080h
  3409  01BF  3D78               	addwfc	(2+(??___ftge+0)+0),w
  3410  01C0  00F2               	movwf	2+(___ftge@ff1)
  3411  01C1  29C2               	goto	l4506
  3412                           	
  3413  01C2                     l2809:	
  3414                           	line	8
  3415                           	
  3416  01C2                     l4506:	
  3417  01C2  1FF5               	btfss	(___ftge@ff2+2),(23)&7
  3418  01C3  29C5               	goto	u2811
  3419  01C4  29C6               	goto	u2810
  3420  01C5                     u2811:
  3421  01C5  29DB               	goto	l4510
  3422  01C6                     u2810:
  3423                           	line	9
  3424                           	
  3425  01C6                     l4508:	
  3426  01C6  0973               	comf	(___ftge@ff2),w
  3427  01C7  00F6               	movwf	(??___ftge+0)+0
  3428  01C8  0974               	comf	(___ftge@ff2+1),w
  3429  01C9  00F7               	movwf	((??___ftge+0)+0+1)
  3430  01CA  0975               	comf	(___ftge@ff2+2),w
  3431  01CB  00F8               	movwf	((??___ftge+0)+0+2)
  3432  01CC  0AF6               	incf	(??___ftge+0)+0,f
  3433  01CD  1903               	skipnz
  3434  01CE  0AF7               	incf	((??___ftge+0)+0+1),f
  3435  01CF  1903               	skipnz
  3436  01D0  0AF8               	incf	((??___ftge+0)+0+2),f
  3437  01D1  3000               	movlw	0
  3438  01D2  0776               	addwf	(0+(??___ftge+0)+0),w
  3439  01D3  00F3               	movwf	(___ftge@ff2)
  3440  01D4  3000               	movlw	0
  3441  01D5  3D77               	addwfc	(1+(??___ftge+0)+0),w
  3442  01D6  00F4               	movwf	1+(___ftge@ff2)
  3443  01D7  3080               	movlw	080h
  3444  01D8  3D78               	addwfc	(2+(??___ftge+0)+0),w
  3445  01D9  00F5               	movwf	2+(___ftge@ff2)
  3446  01DA  29DB               	goto	l4510
  3447                           	
  3448  01DB                     l2810:	
  3449                           	line	10
  3450                           	
  3451  01DB                     l4510:	
  3452  01DB  3080               	movlw	080h
  3453  01DC  06F2               	xorwf	(___ftge@ff1+2),f
  3454                           	line	11
  3455                           	
  3456  01DD                     l4512:	
  3457  01DD  3080               	movlw	080h
  3458  01DE  06F5               	xorwf	(___ftge@ff2+2),f
  3459                           	line	12
  3460                           	
  3461  01DF                     l4514:	
  3462  01DF  0875               	movf	(___ftge@ff2+2),w
  3463  01E0  0272               	subwf	(___ftge@ff1+2),w
  3464  01E1  1D03               	skipz
  3465  01E2  29E9               	goto	u2825
  3466  01E3  0874               	movf	(___ftge@ff2+1),w
  3467  01E4  0271               	subwf	(___ftge@ff1+1),w
  3468  01E5  1D03               	skipz
  3469  01E6  29E9               	goto	u2825
  3470  01E7  0873               	movf	(___ftge@ff2),w
  3471  01E8  0270               	subwf	(___ftge@ff1),w
  3472  01E9                     u2825:
  3473  01E9  1803               	skipnc
  3474  01EA  29EC               	goto	u2821
  3475  01EB  29ED               	goto	u2820
  3476  01EC                     u2821:
  3477  01EC  29EF               	goto	l4518
  3478  01ED                     u2820:
  3479                           	
  3480  01ED                     l4516:	
  3481  01ED  1003               	clrc
  3482                           	
  3483  01EE  29F2               	goto	l2811
  3484                           	
  3485  01EF                     l4326:	
  3486                           	
  3487  01EF                     l4518:	
  3488  01EF  1403               	setc
  3489                           	
  3490  01F0  29F2               	goto	l2811
  3491                           	
  3492  01F1                     l4328:	
  3493  01F1  29F2               	goto	l2811
  3494                           	
  3495  01F2                     l4520:	
  3496                           	line	13
  3497                           	
  3498  01F2                     l2811:	
  3499  01F2  0008               	return
  3500                           	opt stack 0
  3501                           GLOBAL	__end_of___ftge
  3502  01F3                     	__end_of___ftge:
  3503 ;; =============== function ___ftge ends ============
  3504                           
  3505                           	signat	___ftge,8312
  3506                           	global	___fttol
  3507                           psect	text321,local,class=CODE,delta=2
  3508                           global __ptext321
  3509  02F3                     __ptext321:
  3510                           
  3511 ;; *************** function ___fttol *****************
  3512 ;; Defined at:
  3513 ;;		line 45 in file "C:\Program Files\HI-TECH Software\PICC\9.83\sources\fttol.c"
  3514 ;; Parameters:    Size  Location     Type
  3515 ;;  f1              3    9[COMMON] float 
  3516 ;; Auto vars:     Size  Location     Type
  3517 ;;  lval            4    5[BANK0 ] unsigned long 
  3518 ;;  exp1            1    9[BANK0 ] unsigned char 
  3519 ;;  sign1           1    4[BANK0 ] unsigned char 
  3520 ;; Return value:  Size  Location     Type
  3521 ;;                  4    9[COMMON] long 
  3522 ;; Registers used:
  3523 ;;		wreg, status,2, status,0
  3524 ;; Tracked objects:
  3525 ;;		On entry : 0/0
  3526 ;;		On exit  : 0/0
  3527 ;;		Unchanged: 0/0
  3528 ;; Data sizes:     COMMON   BANK0   BANK1
  3529 ;;      Params:         4       0       0
  3530 ;;      Locals:         0       6       0
  3531 ;;      Temps:          0       4       0
  3532 ;;      Totals:         4      10       0
  3533 ;;Total ram usage:       14 bytes
  3534 ;; Hardware stack levels used:    1
  3535 ;; This function calls:
  3536 ;;		Nothing
  3537 ;; This function is called by:
  3538 ;;		_main
  3539 ;; This function uses a non-reentrant model
  3540 ;;
  3541                           psect	text321
  3542                           	file	"C:\Program Files\HI-TECH Software\PICC\9.83\sources\fttol.c"
  3543                           	line	45
  3544                           	global	__size_of___fttol
  3545  009F                     	__size_of___fttol	equ	__end_of___fttol-___fttol
  3546                           	
  3547  02F3                     ___fttol:	
  3548                           	opt	stack 15
  3549                           ; Regs used in ___fttol: [wreg+status,2+status,0]
  3550                           	line	49
  3551                           	
  3552  02F3                     l4438:	
  3553  02F3  0879               	movf	(___fttol@f1),w
  3554  02F4  0020               	movlb 0	; select bank0
  3555  02F5  00A0               	movwf	((??___fttol+0)+0)
  3556  02F6  087A               	movf	(___fttol@f1+1),w
  3557  02F7  00A1               	movwf	((??___fttol+0)+0+1)
  3558  02F8  087B               	movf	(___fttol@f1+2),w
  3559  02F9  00A2               	movwf	((??___fttol+0)+0+2)
  3560  02FA  1003               	clrc
  3561  02FB  0D21               	rlf	(??___fttol+0)+1,w
  3562  02FC  0D22               	rlf	(??___fttol+0)+2,w
  3563  02FD  00A3               	movwf	(??___fttol+3)+0
  3564  02FE  0823               	movf	(??___fttol+3)+0,w
  3565  02FF  00A9               	movwf	(___fttol@exp1)
  3566  0300  08A9               	movf	((___fttol@exp1)),f
  3567  0301  1D03               	skipz
  3568  0302  2B04               	goto	u2681
  3569  0303  2B05               	goto	u2680
  3570  0304                     u2681:
  3571  0304  2B0F               	goto	l4444
  3572  0305                     u2680:
  3573                           	line	50
  3574                           	
  3575  0305                     l4440:	
  3576  0305  3000               	movlw	0
  3577  0306  00FC               	movwf	(?___fttol+3)
  3578  0307  3000               	movlw	0
  3579  0308  00FB               	movwf	(?___fttol+2)
  3580  0309  3000               	movlw	0
  3581  030A  00FA               	movwf	(?___fttol+1)
  3582  030B  3000               	movlw	0
  3583  030C  00F9               	movwf	(?___fttol)
  3584                           
  3585  030D  2B91               	goto	l2752
  3586                           	
  3587  030E                     l4442:	
  3588  030E  2B91               	goto	l2752
  3589                           	
  3590  030F                     l2751:	
  3591                           	line	51
  3592                           	
  3593  030F                     l4444:	
  3594  030F  0879               	movf	(___fttol@f1),w
  3595  0310  00A0               	movwf	((??___fttol+0)+0)
  3596  0311  087A               	movf	(___fttol@f1+1),w
  3597  0312  00A1               	movwf	((??___fttol+0)+0+1)
  3598  0313  087B               	movf	(___fttol@f1+2),w
  3599  0314  00A2               	movwf	((??___fttol+0)+0+2)
  3600  0315  3017               	movlw	017h
  3601  0316                     u2695:
  3602  0316  36A2               	lsrf	(??___fttol+0)+2,f
  3603  0317  0CA1               	rrf	(??___fttol+0)+1,f
  3604  0318  0CA0               	rrf	(??___fttol+0)+0,f
  3605  0319                     u2690:
  3606  0319  0B89               	decfsz	wreg,f
  3607  031A  2B16               	goto	u2695
  3608  031B  0820               	movf	0+(??___fttol+0)+0,w
  3609  031C  00A3               	movwf	(??___fttol+3)+0
  3610  031D  0823               	movf	(??___fttol+3)+0,w
  3611  031E  00A4               	movwf	(___fttol@sign1)
  3612                           	line	52
  3613                           	
  3614  031F                     l4446:	
  3615  031F  17FA               	bsf	(___fttol@f1)+(15/8),(15)&7
  3616                           	line	53
  3617                           	
  3618  0320                     l4448:	
  3619  0320  30FF               	movlw	0FFh
  3620  0321  05F9               	andwf	(___fttol@f1),f
  3621  0322  30FF               	movlw	0FFh
  3622  0323  05FA               	andwf	(___fttol@f1+1),f
  3623  0324  3000               	movlw	0
  3624  0325  05FB               	andwf	(___fttol@f1+2),f
  3625                           	line	54
  3626                           	
  3627  0326                     l4450:	
  3628  0326  0879               	movf	(___fttol@f1),w
  3629  0327  00A5               	movwf	(___fttol@lval)
  3630  0328  087A               	movf	(___fttol@f1+1),w
  3631  0329  00A6               	movwf	((___fttol@lval))+1
  3632  032A  087B               	movf	(___fttol@f1+2),w
  3633  032B  00A7               	movwf	((___fttol@lval))+2
  3634  032C  01A8               	clrf	((___fttol@lval))+3
  3635                           	line	55
  3636                           	
  3637  032D                     l4452:	
  3638  032D  308E               	movlw	low(08Eh)
  3639  032E  02A9               	subwf	(___fttol@exp1),f
  3640                           	line	56
  3641                           	
  3642  032F                     l4454:	
  3643  032F  1FA9               	btfss	(___fttol@exp1),7
  3644  0330  2B32               	goto	u2701
  3645  0331  2B33               	goto	u2700
  3646  0332                     u2701:
  3647  0332  2B56               	goto	l4464
  3648  0333                     u2700:
  3649                           	line	57
  3650                           	
  3651  0333                     l4456:	
  3652  0333  0829               	movf	(___fttol@exp1),w
  3653  0334  3A80               	xorlw	80h
  3654  0335  3E8F               	addlw	-((-15)^80h)
  3655  0336  1803               	skipnc
  3656  0337  2B39               	goto	u2711
  3657  0338  2B3A               	goto	u2710
  3658  0339                     u2711:
  3659  0339  2B45               	goto	l4462
  3660  033A                     u2710:
  3661                           	line	58
  3662                           	
  3663  033A                     l4458:	
  3664  033A  3000               	movlw	0
  3665  033B  00FC               	movwf	(?___fttol+3)
  3666  033C  3000               	movlw	0
  3667  033D  00FB               	movwf	(?___fttol+2)
  3668  033E  3000               	movlw	0
  3669  033F  00FA               	movwf	(?___fttol+1)
  3670  0340  3000               	movlw	0
  3671  0341  00F9               	movwf	(?___fttol)
  3672                           
  3673  0342  2B91               	goto	l2752
  3674                           	
  3675  0343                     l4460:	
  3676  0343  2B91               	goto	l2752
  3677                           	
  3678  0344                     l2754:	
  3679  0344  2B45               	goto	l4462
  3680                           	line	59
  3681                           	
  3682  0345                     l2755:	
  3683                           	line	60
  3684                           	
  3685  0345                     l4462:	
  3686  0345  3001               	movlw	01h
  3687  0346                     u2725:
  3688  0346  36A8               	lsrf	(___fttol@lval+3),f
  3689  0347  0CA7               	rrf	(___fttol@lval+2),f
  3690  0348  0CA6               	rrf	(___fttol@lval+1),f
  3691  0349  0CA5               	rrf	(___fttol@lval),f
  3692  034A  0B89               	decfsz	wreg,f
  3693  034B  2B46               	goto	u2725
  3694                           
  3695                           	line	61
  3696  034C  3001               	movlw	(01h)
  3697  034D  00A0               	movwf	(??___fttol+0)+0
  3698  034E  0820               	movf	(??___fttol+0)+0,w
  3699  034F  07A9               	addwf	(___fttol@exp1),f
  3700  0350  1D03               	btfss	status,2
  3701  0351  2B53               	goto	u2731
  3702  0352  2B54               	goto	u2730
  3703  0353                     u2731:
  3704  0353  2B45               	goto	l4462
  3705  0354                     u2730:
  3706  0354  2B78               	goto	l4474
  3707                           	
  3708  0355                     l2756:	
  3709                           	line	62
  3710  0355  2B78               	goto	l4474
  3711                           	
  3712  0356                     l2753:	
  3713                           	line	63
  3714                           	
  3715  0356                     l4464:	
  3716  0356  3018               	movlw	(018h)
  3717  0357  0229               	subwf	(___fttol@exp1),w
  3718  0358  1C03               	skipc
  3719  0359  2B5B               	goto	u2741
  3720  035A  2B5C               	goto	u2740
  3721  035B                     u2741:
  3722  035B  2B71               	goto	l4472
  3723  035C                     u2740:
  3724                           	line	64
  3725                           	
  3726  035C                     l4466:	
  3727  035C  3000               	movlw	0
  3728  035D  00FC               	movwf	(?___fttol+3)
  3729  035E  3000               	movlw	0
  3730  035F  00FB               	movwf	(?___fttol+2)
  3731  0360  3000               	movlw	0
  3732  0361  00FA               	movwf	(?___fttol+1)
  3733  0362  3000               	movlw	0
  3734  0363  00F9               	movwf	(?___fttol)
  3735                           
  3736  0364  2B91               	goto	l2752
  3737                           	
  3738  0365                     l4468:	
  3739  0365  2B91               	goto	l2752
  3740                           	
  3741  0366                     l2758:	
  3742                           	line	65
  3743  0366  2B71               	goto	l4472
  3744                           	
  3745  0367                     l2760:	
  3746                           	line	66
  3747                           	
  3748  0367                     l4470:	
  3749  0367  3001               	movlw	01h
  3750  0368                     u2755:
  3751  0368  35A5               	lslf	(___fttol@lval),f
  3752  0369  0DA6               	rlf	(___fttol@lval+1),f
  3753  036A  0DA7               	rlf	(___fttol@lval+2),f
  3754  036B  0DA8               	rlf	(___fttol@lval+3),f
  3755  036C  0B89               	decfsz	wreg,f
  3756  036D  2B68               	goto	u2755
  3757                           	line	67
  3758  036E  3001               	movlw	low(01h)
  3759  036F  02A9               	subwf	(___fttol@exp1),f
  3760  0370  2B71               	goto	l4472
  3761                           	line	68
  3762                           	
  3763  0371                     l2759:	
  3764                           	line	65
  3765                           	
  3766  0371                     l4472:	
  3767  0371  08A9               	movf	(___fttol@exp1),f
  3768  0372  1D03               	skipz
  3769  0373  2B75               	goto	u2761
  3770  0374  2B76               	goto	u2760
  3771  0375                     u2761:
  3772  0375  2B67               	goto	l4470
  3773  0376                     u2760:
  3774  0376  2B78               	goto	l4474
  3775                           	
  3776  0377                     l2761:	
  3777  0377  2B78               	goto	l4474
  3778                           	line	69
  3779                           	
  3780  0378                     l2757:	
  3781                           	line	70
  3782                           	
  3783  0378                     l4474:	
  3784  0378  0824               	movf	(___fttol@sign1),w
  3785  0379  1D03               	skipz
  3786  037A  2B7C               	goto	u2770
  3787  037B  2B88               	goto	l4478
  3788  037C                     u2770:
  3789                           	line	71
  3790                           	
  3791  037C                     l4476:	
  3792  037C  09A5               	comf	(___fttol@lval),f
  3793  037D  09A6               	comf	(___fttol@lval+1),f
  3794  037E  09A7               	comf	(___fttol@lval+2),f
  3795  037F  09A8               	comf	(___fttol@lval+3),f
  3796  0380  0AA5               	incf	(___fttol@lval),f
  3797  0381  1903               	skipnz
  3798  0382  0AA6               	incf	(___fttol@lval+1),f
  3799  0383  1903               	skipnz
  3800  0384  0AA7               	incf	(___fttol@lval+2),f
  3801  0385  1903               	skipnz
  3802  0386  0AA8               	incf	(___fttol@lval+3),f
  3803  0387  2B88               	goto	l4478
  3804                           	
  3805  0388                     l2762:	
  3806                           	line	72
  3807                           	
  3808  0388                     l4478:	
  3809  0388  0828               	movf	(___fttol@lval+3),w
  3810  0389  00FC               	movwf	(?___fttol+3)
  3811  038A  0827               	movf	(___fttol@lval+2),w
  3812  038B  00FB               	movwf	(?___fttol+2)
  3813  038C  0826               	movf	(___fttol@lval+1),w
  3814  038D  00FA               	movwf	(?___fttol+1)
  3815  038E  0825               	movf	(___fttol@lval),w
  3816  038F  00F9               	movwf	(?___fttol)
  3817                           
  3818  0390  2B91               	goto	l2752
  3819                           	
  3820  0391                     l4480:	
  3821                           	line	73
  3822                           	
  3823  0391                     l2752:	
  3824  0391  0008               	return
  3825                           	opt stack 0
  3826                           GLOBAL	__end_of___fttol
  3827  0392                     	__end_of___fttol:
  3828 ;; =============== function ___fttol ends ============
  3829                           
  3830                           	signat	___fttol,4220
  3831                           	global	___ftpack
  3832                           psect	text322,local,class=CODE,delta=2
  3833                           global __ptext322
  3834  01F3                     __ptext322:
  3835                           
  3836 ;; *************** function ___ftpack *****************
  3837 ;; Defined at:
  3838 ;;		line 63 in file "C:\Program Files\HI-TECH Software\PICC\9.83\sources\float.c"
  3839 ;; Parameters:    Size  Location     Type
  3840 ;;  arg             3    0[COMMON] unsigned um
  3841 ;;  exp             1    3[COMMON] unsigned char 
  3842 ;;  sign            1    4[COMMON] unsigned char 
  3843 ;; Auto vars:     Size  Location     Type
  3844 ;;		None
  3845 ;; Return value:  Size  Location     Type
  3846 ;;                  3    0[COMMON] float 
  3847 ;; Registers used:
  3848 ;;		wreg, status,2, status,0
  3849 ;; Tracked objects:
  3850 ;;		On entry : 0/0
  3851 ;;		On exit  : 0/0
  3852 ;;		Unchanged: 0/0
  3853 ;; Data sizes:     COMMON   BANK0   BANK1
  3854 ;;      Params:         5       0       0
  3855 ;;      Locals:         0       0       0
  3856 ;;      Temps:          3       0       0
  3857 ;;      Totals:         8       0       0
  3858 ;;Total ram usage:        8 bytes
  3859 ;; Hardware stack levels used:    1
  3860 ;; This function calls:
  3861 ;;		Nothing
  3862 ;; This function is called by:
  3863 ;;		___ftadd
  3864 ;;		___ftmul
  3865 ;;		___lbtoft
  3866 ;;		___ftdiv
  3867 ;;		___abtoft
  3868 ;;		___awtoft
  3869 ;;		___lwtoft
  3870 ;;		___altoft
  3871 ;;		___lltoft
  3872 ;;		___attoft
  3873 ;;		___lttoft
  3874 ;; This function uses a non-reentrant model
  3875 ;;
  3876                           psect	text322
  3877                           	file	"C:\Program Files\HI-TECH Software\PICC\9.83\sources\float.c"
  3878                           	line	63
  3879                           	global	__size_of___ftpack
  3880  0073                     	__size_of___ftpack	equ	__end_of___ftpack-___ftpack
  3881                           	
  3882  01F3                     ___ftpack:	
  3883                           	opt	stack 12
  3884                           ; Regs used in ___ftpack: [wreg+status,2+status,0]
  3885                           	line	64
  3886                           	
  3887  01F3                     l4370:	
  3888  01F3  0873               	movf	(___ftpack@exp),w
  3889  01F4  1D03               	skipz
  3890  01F5  29F7               	goto	u2490
  3891  01F6  29FF               	goto	l4374
  3892  01F7                     u2490:
  3893                           	
  3894  01F7                     l4372:	
  3895  01F7  0872               	movf	(___ftpack@arg+2),w
  3896  01F8  0471               	iorwf	(___ftpack@arg+1),w
  3897  01F9  0470               	iorwf	(___ftpack@arg),w
  3898  01FA  1D03               	skipz
  3899  01FB  29FD               	goto	u2501
  3900  01FC  29FE               	goto	u2500
  3901  01FD                     u2501:
  3902  01FD  2A13               	goto	l4380
  3903  01FE                     u2500:
  3904  01FE  29FF               	goto	l4374
  3905                           	
  3906  01FF                     l2976:	
  3907                           	line	65
  3908                           	
  3909  01FF                     l4374:	
  3910  01FF  3000               	movlw	0x0
  3911  0200  00F0               	movwf	(?___ftpack)
  3912  0201  3000               	movlw	0x0
  3913  0202  00F1               	movwf	(?___ftpack+1)
  3914  0203  3000               	movlw	0x0
  3915  0204  00F2               	movwf	(?___ftpack+2)
  3916  0205  2A65               	goto	l2977
  3917                           	
  3918  0206                     l4376:	
  3919  0206  2A65               	goto	l2977
  3920                           	
  3921  0207                     l2974:	
  3922                           	line	66
  3923  0207  2A13               	goto	l4380
  3924                           	
  3925  0208                     l2979:	
  3926                           	line	67
  3927                           	
  3928  0208                     l4378:	
  3929  0208  3001               	movlw	(01h)
  3930  0209  00F5               	movwf	(??___ftpack+0)+0
  3931  020A  0875               	movf	(??___ftpack+0)+0,w
  3932  020B  07F3               	addwf	(___ftpack@exp),f
  3933                           	line	68
  3934  020C  3001               	movlw	01h
  3935  020D                     u2515:
  3936  020D  36F2               	lsrf	(___ftpack@arg+2),f
  3937  020E  0CF1               	rrf	(___ftpack@arg+1),f
  3938  020F  0CF0               	rrf	(___ftpack@arg),f
  3939  0210  0B89               	decfsz	wreg,f
  3940  0211  2A0D               	goto	u2515
  3941                           
  3942  0212  2A13               	goto	l4380
  3943                           	line	69
  3944                           	
  3945  0213                     l2978:	
  3946                           	line	66
  3947                           	
  3948  0213                     l4380:	
  3949  0213  30FE               	movlw	low highword(0FE0000h)
  3950  0214  0572               	andwf	(___ftpack@arg+2),w
  3951  0215  1D03               	btfss	status,2
  3952  0216  2A18               	goto	u2521
  3953  0217  2A19               	goto	u2520
  3954  0218                     u2521:
  3955  0218  2A08               	goto	l4378
  3956  0219                     u2520:
  3957  0219  2A2F               	goto	l2981
  3958                           	
  3959  021A                     l2980:	
  3960                           	line	70
  3961  021A  2A2F               	goto	l2981
  3962                           	
  3963  021B                     l2982:	
  3964                           	line	71
  3965                           	
  3966  021B                     l4382:	
  3967  021B  3001               	movlw	(01h)
  3968  021C  00F5               	movwf	(??___ftpack+0)+0
  3969  021D  0875               	movf	(??___ftpack+0)+0,w
  3970  021E  07F3               	addwf	(___ftpack@exp),f
  3971                           	line	72
  3972                           	
  3973  021F                     l4384:	
  3974  021F  3001               	movlw	01h
  3975  0220  07F0               	addwf	(___ftpack@arg),f
  3976  0221  3000               	movlw	0
  3977  0222  1803               	skipnc
  3978  0223  3001               movlw 1
  3979  0224  07F1               	addwf	(___ftpack@arg+1),f
  3980  0225  3000               	movlw	0
  3981  0226  1803               	skipnc
  3982  0227  3001               movlw 1
  3983  0228  07F2               	addwf	(___ftpack@arg+2),f
  3984                           	line	73
  3985                           	
  3986  0229                     l4386:	
  3987  0229  3001               	movlw	01h
  3988  022A                     u2535:
  3989  022A  36F2               	lsrf	(___ftpack@arg+2),f
  3990  022B  0CF1               	rrf	(___ftpack@arg+1),f
  3991  022C  0CF0               	rrf	(___ftpack@arg),f
  3992  022D  0B89               	decfsz	wreg,f
  3993  022E  2A2A               	goto	u2535
  3994                           
  3995                           	line	74
  3996                           	
  3997  022F                     l2981:	
  3998                           	line	70
  3999  022F  30FF               	movlw	low highword(0FF0000h)
  4000  0230  0572               	andwf	(___ftpack@arg+2),w
  4001  0231  1D03               	btfss	status,2
  4002  0232  2A34               	goto	u2541
  4003  0233  2A35               	goto	u2540
  4004  0234                     u2541:
  4005  0234  2A1B               	goto	l4382
  4006  0235                     u2540:
  4007  0235  2A40               	goto	l4390
  4008                           	
  4009  0236                     l2983:	
  4010                           	line	75
  4011  0236  2A40               	goto	l4390
  4012                           	
  4013  0237                     l2985:	
  4014                           	line	76
  4015                           	
  4016  0237                     l4388:	
  4017  0237  3001               	movlw	low(01h)
  4018  0238  02F3               	subwf	(___ftpack@exp),f
  4019                           	line	77
  4020  0239  3001               	movlw	01h
  4021  023A                     u2555:
  4022  023A  35F0               	lslf	(___ftpack@arg),f
  4023  023B  0DF1               	rlf	(___ftpack@arg+1),f
  4024  023C  0DF2               	rlf	(___ftpack@arg+2),f
  4025  023D  0B89               	decfsz	wreg,f
  4026  023E  2A3A               	goto	u2555
  4027  023F  2A40               	goto	l4390
  4028                           	line	78
  4029                           	
  4030  0240                     l2984:	
  4031                           	line	75
  4032                           	
  4033  0240                     l4390:	
  4034  0240  1FF1               	btfss	(___ftpack@arg+1),(15)&7
  4035  0241  2A43               	goto	u2561
  4036  0242  2A44               	goto	u2560
  4037  0243                     u2561:
  4038  0243  2A37               	goto	l4388
  4039  0244                     u2560:
  4040                           	
  4041  0244                     l2986:	
  4042                           	line	79
  4043  0244  1873               	btfsc	(___ftpack@exp),(0)&7
  4044  0245  2A47               	goto	u2571
  4045  0246  2A48               	goto	u2570
  4046  0247                     u2571:
  4047  0247  2A4E               	goto	l2987
  4048  0248                     u2570:
  4049                           	line	80
  4050                           	
  4051  0248                     l4392:	
  4052  0248  30FF               	movlw	0FFh
  4053  0249  05F0               	andwf	(___ftpack@arg),f
  4054  024A  307F               	movlw	07Fh
  4055  024B  05F1               	andwf	(___ftpack@arg+1),f
  4056  024C  30FF               	movlw	0FFh
  4057  024D  05F2               	andwf	(___ftpack@arg+2),f
  4058                           	
  4059  024E                     l2987:	
  4060                           	line	81
  4061  024E  1003               	clrc
  4062  024F  0CF3               	rrf	(___ftpack@exp),f
  4063                           
  4064                           	line	82
  4065                           	
  4066  0250                     l4394:	
  4067  0250  0873               	movf	(___ftpack@exp),w
  4068  0251  00F5               	movwf	((??___ftpack+0)+0)
  4069  0252  01F6               	clrf	((??___ftpack+0)+0+1)
  4070  0253  01F7               	clrf	((??___ftpack+0)+0+2)
  4071  0254  3010               	movlw	010h
  4072  0255                     u2585:
  4073  0255  35F5               	lslf	(??___ftpack+0)+0,f
  4074  0256  0DF6               	rlf	(??___ftpack+0)+1,f
  4075  0257  0DF7               	rlf	(??___ftpack+0)+2,f
  4076  0258                     u2580:
  4077  0258  0B89               	decfsz	wreg,f
  4078  0259  2A55               	goto	u2585
  4079  025A  0875               	movf	0+(??___ftpack+0)+0,w
  4080  025B  04F0               	iorwf	(___ftpack@arg),f
  4081  025C  0876               	movf	1+(??___ftpack+0)+0,w
  4082  025D  04F1               	iorwf	(___ftpack@arg+1),f
  4083  025E  0877               	movf	2+(??___ftpack+0)+0,w
  4084  025F  04F2               	iorwf	(___ftpack@arg+2),f
  4085                           	line	83
  4086                           	
  4087  0260                     l4396:	
  4088  0260  0874               	movf	(___ftpack@sign),w
  4089  0261  1D03               	skipz
  4090  0262  2A64               	goto	u2590
  4091  0263  2A65               	goto	l2988
  4092  0264                     u2590:
  4093                           	line	84
  4094                           	
  4095  0264                     l4398:	
  4096  0264  17F2               	bsf	(___ftpack@arg)+(23/8),(23)&7
  4097                           	
  4098  0265                     l2988:	
  4099                           	line	85
  4100                           	line	86
  4101                           	
  4102  0265                     l2977:	
  4103  0265  0008               	return
  4104                           	opt stack 0
  4105                           GLOBAL	__end_of___ftpack
  4106  0266                     	__end_of___ftpack:
  4107 ;; =============== function ___ftpack ends ============
  4108                           
  4109                           	signat	___ftpack,12411
  4110                           	global	___lwdiv
  4111                           psect	text323,local,class=CODE,delta=2
  4112                           global __ptext323
  4113  0163                     __ptext323:
  4114                           
  4115 ;; *************** function ___lwdiv *****************
  4116 ;; Defined at:
  4117 ;;		line 5 in file "C:\Program Files\HI-TECH Software\PICC\9.83\sources\lwdiv.c"
  4118 ;; Parameters:    Size  Location     Type
  4119 ;;  divisor         2    0[COMMON] unsigned int 
  4120 ;;  dividend        2    2[COMMON] unsigned int 
  4121 ;; Auto vars:     Size  Location     Type
  4122 ;;  quotient        2    5[COMMON] unsigned int 
  4123 ;;  counter         1    7[COMMON] unsigned char 
  4124 ;; Return value:  Size  Location     Type
  4125 ;;                  2    0[COMMON] unsigned int 
  4126 ;; Registers used:
  4127 ;;		wreg, status,2, status,0
  4128 ;; Tracked objects:
  4129 ;;		On entry : 0/0
  4130 ;;		On exit  : 0/0
  4131 ;;		Unchanged: 0/0
  4132 ;; Data sizes:     COMMON   BANK0   BANK1
  4133 ;;      Params:         4       0       0
  4134 ;;      Locals:         3       0       0
  4135 ;;      Temps:          1       0       0
  4136 ;;      Totals:         8       0       0
  4137 ;;Total ram usage:        8 bytes
  4138 ;; Hardware stack levels used:    1
  4139 ;; This function calls:
  4140 ;;		Nothing
  4141 ;; This function is called by:
  4142 ;;		_main
  4143 ;; This function uses a non-reentrant model
  4144 ;;
  4145                           psect	text323
  4146                           	file	"C:\Program Files\HI-TECH Software\PICC\9.83\sources\lwdiv.c"
  4147                           	line	5
  4148                           	global	__size_of___lwdiv
  4149  0046                     	__size_of___lwdiv	equ	__end_of___lwdiv-___lwdiv
  4150                           	
  4151  0163                     ___lwdiv:	
  4152                           	opt	stack 15
  4153                           ; Regs used in ___lwdiv: [wreg+status,2+status,0]
  4154                           	line	9
  4155                           	
  4156  0163                     l4344:	
  4157  0163  01F5               	clrf	(___lwdiv@quotient)
  4158  0164  01F6               	clrf	(___lwdiv@quotient+1)
  4159                           	line	10
  4160                           	
  4161  0165                     l4346:	
  4162  0165  0871               	movf	(___lwdiv@divisor+1),w
  4163  0166  0470               	iorwf	(___lwdiv@divisor),w
  4164  0167  1903               	skipnz
  4165  0168  296A               	goto	u2421
  4166  0169  296B               	goto	u2420
  4167  016A                     u2421:
  4168  016A  29A1               	goto	l4366
  4169  016B                     u2420:
  4170                           	line	11
  4171                           	
  4172  016B                     l4348:	
  4173  016B  01F7               	clrf	(___lwdiv@counter)
  4174  016C  1403               	bsf	status,0
  4175  016D  0DF7               	rlf	(___lwdiv@counter),f
  4176                           	line	12
  4177  016E  2979               	goto	l4354
  4178                           	
  4179  016F                     l2650:	
  4180                           	line	13
  4181                           	
  4182  016F                     l4350:	
  4183  016F  3001               	movlw	01h
  4184                           	
  4185  0170                     u2435:
  4186  0170  35F0               	lslf	(___lwdiv@divisor),f
  4187  0171  0DF1               	rlf	(___lwdiv@divisor+1),f
  4188  0172  0B89               	decfsz	wreg,f
  4189  0173  2970               	goto	u2435
  4190                           	line	14
  4191                           	
  4192  0174                     l4352:	
  4193  0174  3001               	movlw	(01h)
  4194  0175  00F4               	movwf	(??___lwdiv+0)+0
  4195  0176  0874               	movf	(??___lwdiv+0)+0,w
  4196  0177  07F7               	addwf	(___lwdiv@counter),f
  4197  0178  2979               	goto	l4354
  4198                           	line	15
  4199                           	
  4200  0179                     l2649:	
  4201                           	line	12
  4202                           	
  4203  0179                     l4354:	
  4204  0179  1FF1               	btfss	(___lwdiv@divisor+1),(15)&7
  4205  017A  297C               	goto	u2441
  4206  017B  297D               	goto	u2440
  4207  017C                     u2441:
  4208  017C  296F               	goto	l4350
  4209  017D                     u2440:
  4210  017D  297F               	goto	l4356
  4211                           	
  4212  017E                     l2651:	
  4213  017E  297F               	goto	l4356
  4214                           	line	16
  4215                           	
  4216  017F                     l2652:	
  4217                           	line	17
  4218                           	
  4219  017F                     l4356:	
  4220  017F  3001               	movlw	01h
  4221                           	
  4222  0180                     u2455:
  4223  0180  35F5               	lslf	(___lwdiv@quotient),f
  4224  0181  0DF6               	rlf	(___lwdiv@quotient+1),f
  4225  0182  0B89               	decfsz	wreg,f
  4226  0183  2980               	goto	u2455
  4227                           	line	18
  4228  0184  0871               	movf	(___lwdiv@divisor+1),w
  4229  0185  0273               	subwf	(___lwdiv@dividend+1),w
  4230  0186  1D03               	skipz
  4231  0187  298A               	goto	u2465
  4232  0188  0870               	movf	(___lwdiv@divisor),w
  4233  0189  0272               	subwf	(___lwdiv@dividend),w
  4234  018A                     u2465:
  4235  018A  1C03               	skipc
  4236  018B  298D               	goto	u2461
  4237  018C  298E               	goto	u2460
  4238  018D                     u2461:
  4239  018D  2994               	goto	l4362
  4240  018E                     u2460:
  4241                           	line	19
  4242                           	
  4243  018E                     l4358:	
  4244  018E  0870               	movf	(___lwdiv@divisor),w
  4245  018F  02F2               	subwf	(___lwdiv@dividend),f
  4246  0190  0871               	movf	(___lwdiv@divisor+1),w
  4247  0191  3BF3               	subwfb	(___lwdiv@dividend+1),f
  4248                           	line	20
  4249                           	
  4250  0192                     l4360:	
  4251  0192  1475               	bsf	(___lwdiv@quotient)+(0/8),(0)&7
  4252  0193  2994               	goto	l4362
  4253                           	line	21
  4254                           	
  4255  0194                     l2653:	
  4256                           	line	22
  4257                           	
  4258  0194                     l4362:	
  4259  0194  3001               	movlw	01h
  4260                           	
  4261  0195                     u2475:
  4262  0195  36F1               	lsrf	(___lwdiv@divisor+1),f
  4263  0196  0CF0               	rrf	(___lwdiv@divisor),f
  4264  0197  0B89               	decfsz	wreg,f
  4265  0198  2995               	goto	u2475
  4266                           	line	23
  4267                           	
  4268  0199                     l4364:	
  4269  0199  3001               	movlw	low(01h)
  4270  019A  02F7               	subwf	(___lwdiv@counter),f
  4271  019B  1D03               	btfss	status,2
  4272  019C  299E               	goto	u2481
  4273  019D  299F               	goto	u2480
  4274  019E                     u2481:
  4275  019E  297F               	goto	l4356
  4276  019F                     u2480:
  4277  019F  29A1               	goto	l4366
  4278                           	
  4279  01A0                     l2654:	
  4280  01A0  29A1               	goto	l4366
  4281                           	line	24
  4282                           	
  4283  01A1                     l2648:	
  4284                           	line	25
  4285                           	
  4286  01A1                     l4366:	
  4287  01A1  0876               	movf	(___lwdiv@quotient+1),w
  4288  01A2  01F1               	clrf	(?___lwdiv+1)
  4289  01A3  07F1               	addwf	(?___lwdiv+1)
  4290  01A4  0875               	movf	(___lwdiv@quotient),w
  4291  01A5  01F0               	clrf	(?___lwdiv)
  4292  01A6  07F0               	addwf	(?___lwdiv)
  4293                           
  4294  01A7  29A8               	goto	l2655
  4295                           	
  4296  01A8                     l4368:	
  4297                           	line	26
  4298                           	
  4299  01A8                     l2655:	
  4300  01A8  0008               	return
  4301                           	opt stack 0
  4302                           GLOBAL	__end_of___lwdiv
  4303  01A9                     	__end_of___lwdiv:
  4304 ;; =============== function ___lwdiv ends ============
  4305                           
  4306                           	signat	___lwdiv,8314
  4307                           	global	_USART_SENDDATA
  4308                           psect	text324,local,class=CODE,delta=2
  4309                           global __ptext324
  4310  00DA                     __ptext324:
  4311                           
  4312 ;; *************** function _USART_SENDDATA *****************
  4313 ;; Defined at:
  4314 ;;		line 138 in file "D:\DVA\projects\Intelligent helmet for accident detection\programs\import\topv3\adc.c"
  4315 ;; Parameters:    Size  Location     Type
  4316 ;;  udata           1    wreg     unsigned char 
  4317 ;; Auto vars:     Size  Location     Type
  4318 ;;  udata           1    0[COMMON] unsigned char 
  4319 ;; Return value:  Size  Location     Type
  4320 ;;		None               void
  4321 ;; Registers used:
  4322 ;;		wreg
  4323 ;; Tracked objects:
  4324 ;;		On entry : 0/0
  4325 ;;		On exit  : 0/0
  4326 ;;		Unchanged: 0/0
  4327 ;; Data sizes:     COMMON   BANK0   BANK1
  4328 ;;      Params:         0       0       0
  4329 ;;      Locals:         1       0       0
  4330 ;;      Temps:          0       0       0
  4331 ;;      Totals:         1       0       0
  4332 ;;Total ram usage:        1 bytes
  4333 ;; Hardware stack levels used:    1
  4334 ;; This function calls:
  4335 ;;		Nothing
  4336 ;; This function is called by:
  4337 ;;		_main
  4338 ;;		_txdata
  4339 ;; This function uses a non-reentrant model
  4340 ;;
  4341                           psect	text324
  4342                           	file	"D:\DVA\projects\Intelligent helmet for accident detection\programs\import\topv3\a
                                 dc.c"
  4343                           	line	138
  4344                           	global	__size_of_USART_SENDDATA
  4345  000C                     	__size_of_USART_SENDDATA	equ	__end_of_USART_SENDDATA-_USART_SENDDATA
  4346                           	
  4347  00DA                     _USART_SENDDATA:	
  4348                           	opt	stack 15
  4349                           ; Regs used in _USART_SENDDATA: [wreg]
  4350                           ;USART_SENDDATA@udata stored from wreg
  4351  00DA  00F0               	movwf	(USART_SENDDATA@udata)
  4352                           	line	139
  4353                           	
  4354  00DB                     l4334:	
  4355                           ;adc.c: 139: TXREG= udata;
  4356  00DB  0870               	movf	(USART_SENDDATA@udata),w
  4357  00DC  0023               	movlb 3	; select bank3
  4358  00DD  009A               	movwf	(410)^0180h	;volatile
  4359                           	line	140
  4360                           ;adc.c: 140: while(PIR1bits.TXIF==0);
  4361  00DE  28DF               	goto	l1376
  4362                           	
  4363  00DF                     l1377:	
  4364                           	
  4365  00DF                     l1376:	
  4366  00DF  0020               	movlb 0	; select bank0
  4367  00E0  1E11               	btfss	(17),4	;volatile
  4368  00E1  28E3               	goto	u2401
  4369  00E2  28E4               	goto	u2400
  4370  00E3                     u2401:
  4371  00E3  28DF               	goto	l1376
  4372  00E4                     u2400:
  4373                           	
  4374  00E4                     l1378:	
  4375                           	line	141
  4376                           ;adc.c: 141: PIR1bits.TXIF=0;
  4377  00E4  1211               	bcf	(17),4	;volatile
  4378                           	line	142
  4379                           	
  4380  00E5                     l1379:	
  4381  00E5  0008               	return
  4382                           	opt stack 0
  4383                           GLOBAL	__end_of_USART_SENDDATA
  4384  00E6                     	__end_of_USART_SENDDATA:
  4385 ;; =============== function _USART_SENDDATA ends ============
  4386                           
  4387                           	signat	_USART_SENDDATA,4216
  4388                           	global	_delay
  4389                           psect	text325,local,class=CODE,delta=2
  4390                           global __ptext325
  4391  00F6                     __ptext325:
  4392                           
  4393 ;; *************** function _delay *****************
  4394 ;; Defined at:
  4395 ;;		line 198 in file "D:\DVA\projects\Intelligent helmet for accident detection\programs\import\topv3\adc.c"
  4396 ;; Parameters:    Size  Location     Type
  4397 ;;  d               2    0[COMMON] unsigned int 
  4398 ;; Auto vars:     Size  Location     Type
  4399 ;;  i               2    2[COMMON] unsigned int 
  4400 ;; Return value:  Size  Location     Type
  4401 ;;		None               void
  4402 ;; Registers used:
  4403 ;;		wreg, status,2
  4404 ;; Tracked objects:
  4405 ;;		On entry : 0/0
  4406 ;;		On exit  : 0/0
  4407 ;;		Unchanged: 0/0
  4408 ;; Data sizes:     COMMON   BANK0   BANK1
  4409 ;;      Params:         2       0       0
  4410 ;;      Locals:         2       0       0
  4411 ;;      Temps:          0       0       0
  4412 ;;      Totals:         4       0       0
  4413 ;;Total ram usage:        4 bytes
  4414 ;; Hardware stack levels used:    1
  4415 ;; This function calls:
  4416 ;;		Nothing
  4417 ;; This function is called by:
  4418 ;;		_main
  4419 ;;		_ADC_CONV
  4420 ;; This function uses a non-reentrant model
  4421 ;;
  4422                           psect	text325
  4423                           	file	"D:\DVA\projects\Intelligent helmet for accident detection\programs\import\topv3\a
                                 dc.c"
  4424                           	line	198
  4425                           	global	__size_of_delay
  4426  0013                     	__size_of_delay	equ	__end_of_delay-_delay
  4427                           	
  4428  00F6                     _delay:	
  4429                           	opt	stack 14
  4430                           ; Regs used in _delay: [wreg+status,2]
  4431                           	line	200
  4432                           	
  4433  00F6                     l4330:	
  4434                           ;adc.c: 199: unsigned int i;
  4435                           ;adc.c: 200: for(i=0; i<=d; i++);
  4436  00F6  01F2               	clrf	(delay@i)
  4437  00F7  01F3               	clrf	(delay@i+1)
  4438  00F8  28FD               	goto	l1401
  4439                           	
  4440  00F9                     l1402:	
  4441                           	
  4442  00F9                     l4332:	
  4443  00F9  3001               	movlw	low(01h)
  4444  00FA  07F2               	addwf	(delay@i),f
  4445  00FB  3000               	movlw	high(01h)
  4446  00FC  3DF3               	addwfc	(delay@i+1),f
  4447                           	
  4448  00FD                     l1401:	
  4449  00FD  0873               	movf	(delay@i+1),w
  4450  00FE  0271               	subwf	(delay@d+1),w
  4451  00FF  1D03               	skipz
  4452  0100  2903               	goto	u2395
  4453  0101  0872               	movf	(delay@i),w
  4454  0102  0270               	subwf	(delay@d),w
  4455  0103                     u2395:
  4456  0103  1803               	skipnc
  4457  0104  2906               	goto	u2391
  4458  0105  2907               	goto	u2390
  4459  0106                     u2391:
  4460  0106  28F9               	goto	l4332
  4461  0107                     u2390:
  4462  0107  2908               	goto	l1404
  4463                           	
  4464  0108                     l1403:	
  4465                           	line	201
  4466                           	
  4467  0108                     l1404:	
  4468  0108  0008               	return
  4469                           	opt stack 0
  4470                           GLOBAL	__end_of_delay
  4471  0109                     	__end_of_delay:
  4472 ;; =============== function _delay ends ============
  4473                           
  4474                           	signat	_delay,4216
  4475                           psect	text326,local,class=CODE,delta=2
  4476                           global __ptext326
  4477  0000                     __ptext326:
  4478                           	global	btemp
  4479  007E                     	btemp set 07Eh
  4480                           
  4481                           	DABS	1,126,2	;btemp
  4482                           	global	wtemp0
  4483  007E                     	wtemp0 set btemp


HI-TECH Software PICC Macro Assembler V9.83 build 10920 
Symbol Table                                                                                   Wed May 28 12:02:40 2014

                      _h 0064                        _j 0065                        _k 0066  
                      _r 0059                        _t 0068                        _x 0069  
                      _y 006A                       _RD 0CA8                       _WR 0CA9  
                     _al 0061                       _sd 005B          ?_USART_SENDDATA 0070  
           ___ftadd@exp1 0036             ___ftadd@exp2 0035             ___ftadd@sign 0034  
                    _GIE 005F                      _add 0060                      _rfr 0067  
                    wreg 0009                     l1401 00FD                     l1402 00F9  
                   l1403 0108                     l1404 0108                     l1360 0715  
                   l1361 071B                     l1353 06C2                     l1370 07FD  
                   l1362 07C3                     l1354 06E5                     l1371 07FE  
                   l1355 06F8                     l1372 07FF                     l1364 073A  
                   l1356 06F7                     l1373 07FF                     l1365 075B  
                   l1357 06FD                     l1390 027D                     l1366 076C  
                   l1358 0703                     l1391 02A0                     l1367 07D3  
                   l1359 07C4                     l1376 00DF                     l1392 02A0  
                   l1368 07EF                     l1377 00DF                     l1393 02A5  
                   l1369 07D5                     l1378 00E4                     l1394 02C6  
                   l1379 00E5                     l1395 02D4                     l1396 02E4  
                   l1388 0278                     l2700 05E8                     l1397 02F2  
                   l1389 0278                     l2701 05DD                     l1398 02F2  
                   l2710 0610                     l2702 05EF                     l2630 04C3  
                   l2711 0622                     l2703 0623                     l2631 053E  
                   l2712 0638                     l2704 0623                     l2713 064D  
                   l2705 05F7                     l4330 00F6                     l2650 016F  
                   l2810 01DB                     l2714 066C                     l2651 017E  
                   l2811 01F2                     l2707 060E                     l2627 0492  
                   l4332 00F9                     l2652 017F                     l2708 060F  
                   l2740 03AC                     l2628 0489                     l2653 0194  
                   l2709 061B                     l2741 045B                     l2725 0123  
                   l2629 0555                     l4334 00DB                     l2654 01A0  
                   l4350 016F                     l4326 01EF                     l4510 01DB  
                   l4502 01A9                     l2742 03C5                     l2655 01A8  
                   l2751 030F                     l2743 0401                     l2648 01A1  
                   l4360 0192                     l4352 0174                     l4344 0163  
                   l2760 0367                     l2752 0391                     l4440 0305  
                   l4520 01F2                     l4328 01F1                     l4512 01DD  
                   l4504 01AD                     l4600 02C6                     l2744 040C  
                   l2649 0179                     l2761 0377                     l2753 0356  
                   l2809 01C2                     l2745 041F                     l4362 0194  
                   l4354 0179                     l4346 0165                     l4370 01F3  
                   l2762 0388                     l2754 0344                     l4450 0326  
                   l4442 030E                     l4514 01DF                     l4506 01C2  
                   l4602 02D4                     l2690 05A1                     l4610 056F  
                   l2746 0424                     l2755 0345                     l2747 042F  
                   l4364 0199                     l4356 017F                     l4348 016B  
                   l4380 0213                     l4372 01F7                     l2756 0355  
                   l4460 0343                     l4452 032D                     l4444 030F  
                   l4516 01ED                     l4508 01C6                     l4604 02DD  
                   l2692 05A0                     l4620 058C                     l4612 0573  
                   l2748 0442                     l4700 03FC                     l2757 0378  
                   l2693 05AA                     l4358 018E                     l4366 01A1  
                   l4390 0240                     l4382 021B                     l4374 01FF  
                   l4470 0367                     l2758 0366                     l4462 0345  
                   l4454 032F                     l4446 031F                     l4438 02F3  
                   l4518 01EF                     l4606 02E4                     l2694 05AF  
                   l4630 05A9                     l4622 0590                     l2686 058C  
                   l4614 0579                     l4710 0418                     l4702 0401  
                   l2759 0371                     l2695 05F0                     l2767 0140  
                   l4368 01A8                     l4392 0248                     l4384 021F  
                   l4376 0206                     l4480 0391                     l4472 0371  
                   l4456 0333                     l4464 0356                     l4448 0320  
                   l4640 05CC                     l2696 05C4                     l4632 05AE  
                   l4624 0596                     l2688 0584                     l4616 0584  
                   l4608 0556                     l4720 0435                     l4712 041F  
                   l4704 0405                     l4800 06AC                     l2689 0685  
                   l4394 0250                     l4386 0229                     l4378 0208  
                   l4466 035C                     l4474 0378                     l4458 033A  
                   l4570 026B                     l4650 05F7                     l2698 05DB  
                   l4642 05D2                     l4634 05B0                     l4626 05A1  
                   l4618 058B                     l4722 043B                     l4714 0424  
                   l4706 040C                     l4730 0140                     l4810 06B8  
                   l4802 06AE                     l2699 05DC                     l4396 0260  
                   l4388 0237                     l2980 021A                     l4476 037C  
                   l4468 0365                     l4580 028D                     l4572 026C  
                   l4660 0627                     l4652 05FF                     l4644 05DD  
                   l4636 05B6                     l4628 05A5                     l4724 0442  
                   l4716 0428                     l4708 0412                     l4732 0109  
                   l4740 0470                     l4820 06DF                     l4812 06BA  
                   l4804 06AF                     l2981 022F                     l4398 0264  
                   l2982 021B                     l2974 0207                     l4478 0388  
                   l4590 029D                     l4582 028E                     l4574 026E  
                   l4670 0658                     l4662 0638                     l4654 0605  
                   l4646 05E8                     l4638 05C4                     l4726 045B  
                   l4718 042F                     l4734 010C                     l4750 04AD  
                   l4742 0484                     l4830 0708                     l4822 06E6  
                   l4814 06C1                     l4806 06B2                     l2983 0236  
                   l2984 0240                     l2976 01FF                     l4592 02A5  
                   l4584 0293                     l4576 0275                     l4568 0266  
                   l4672 0668                     l4664 063C                     l4656 0610  
                   l4648 05F0                     l4680 03A4                     l4728 0125  
                   l4736 0123                     l4760 0521                     l4752 04C9  
                   l4744 0491                     l4840 0726                     l4832 070D  
                   l4824 06ED                     l4816 06C2                     l4808 06B5  
                   l2985 0237                     l2977 0265                     l2986 0244  
                   l2978 0213                     l4594 02B5                     l4586 0294  
                   l4578 027D                     l4674 066C                     l4666 064D  
                   l4658 061B                     l4690 03C5                     l4682 03AB  
                   l4762 0537                     l4754 04DF                     l4746 0492  
                   l4738 045C                     l4850 0754                     l4842 0730  
                   l4834 0710                     l4826 06FE                     l4818 06CD  
                   l4770 0689                     l2987 024E                     l2979 0208  
                   l2988 0265                     l4596 02B6                     l4588 0296  
                   l4676 0685                     l4668 0654                     l4692 03EE  
                   l4684 03AC                     l4764 053E                     l4756 04F5  
                   l4748 0499                     l4860 0782                     l4852 075B  
                   l4844 073A                     l4836 0717                     l4828 0703  
                   l4780 069C                     l4772 068A                     l4598 02BF  
                   l4694 03EF                     l4686 03BD                     l4678 0392  
                   l4766 0555                     l4758 050B                     l4862 0794  
                   l4854 0765                     l4846 0746                     l4870 07D3  
                   l4838 0723                     l4790 06A1                     l4782 069D  
                   l4774 0698                     l4696 03F0                     l4688 03C4  
                   l4872 07D5                     l4864 07A1                     l4856 076C  
                   l4848 0749                     l4792 06A2                     l4784 069E  
                   l4776 0699                     l4768 0686                     l4698 03F6  
                   l4874 07E9                     l4866 07BE                     l4858 0770  
                   l4794 06A3                     l4786 069F                     l4778 069B  
                   l4876 07EF                     l4868 07C6                     l4796 06A5  
                   l4788 06A0                     l4798 06A7                     u3000 05AE  
                   u3001 05AD                     u3010 05C3                     u3011 05C2  
                   u3100 060D                     u3101 060C                     u3030 05D2  
                   u3031 05D1                     u2400 00E4                     u3120 0621  
                   u3040 05DA                     u3200 0405                     u2401 00E3  
                   u3121 0620                     u3041 05D9                     u3025 05C5  
                   u3201 0404                     u3130 0627                     u3131 0626  
                   u3115 0611                     u2420 016B                     u2500 01FE  
                   u3140 063C                     u3060 05EE                     u2421 016A  
                   u2501 01FD                     u3141 063B                     u3061 05ED  
                   u3150 0658                     u3070 05F6                     u3230 041E  
                   u3310 053D                     u3151 0657                     u3071 05F5  
                   u3055 05DE                     u3231 041D                     u3215 040D  
                   u3311 053C                     u2440 017D                     u2520 0219  
                   u3240 0428                     u3160 03A4                     u3400 0739  
                   u3320 06C0                     u2441 017C                     u2521 0218  
                   u3241 0427                     u3225 0413                     u3161 03A3  
                   u3305 04AE                     u3401 0738                     u3321 06BF  
                   u3090 0605                     u3170 03BD                     u3410 0754  
                   u3330 06CB                     u2435 0170                     u2515 020D  
                   u3091 0604                     u3171 03BC                     u3411 0753  
                   u3331 06C8                     u2460 018E                     u2540 0235  
                   u2700 0333                     u3180 03D4                     u3420 0765  
                   u2461 018D                     u2541 0234                     u2701 0332  
                   u3085 05F8                     u3421 0764                     u2390 0107  
                   u2710 033A                     u3270 0441                     u3190 03E4  
                   u3430 07FC                     u3350 06E5                     u2391 0106  
                   u2455 0180                     u2535 022A                     u2711 0339  
                   u3271 0440                     u3255 0430                     u3431 07FB  
                   u3415 0750                     u3351 06E4                     u2480 019F  
                   u2560 0244                     u2800 01AD                     u3280 0470  
                   u3360 06FD                     u3344 06CD                     _PIE2 0092  
                   u2481 019E                     u2465 018A                     u2561 0243  
                   u2801 01AC                     u3265 0436                     u3185 03D1  
                   u3281 046F                     u3425 0761                     u3361 06FC  
                   u2570 0248                     u2490 01F7                     u2730 0354  
                   u2810 01C6                     u3290 0484                     u3370 0708  
                   u2395 0103                     u2475 0195                     u2571 0247  
                   u2555 023A                     u2731 0353                     u2811 01C5  
                   u3195 03E1                     u3291 0483                     u3435 07F8  
                   u3371 0707                     u2580 0258                     u2740 035C  
                   u2820 01ED                     u2900 02A4                     u3380 070D  
                   u2741 035B                     u2725 0346                     u2821 01EC  
                   u2901 02A3                     u3381 070C                     u2590 0264  
                   u2910 02BF                     u3390 0730                     u2911 02BE  
                   u3391 072F                     u3447 06D3                     u2760 0376  
                   u2680 0305                     u2920 02DD                     u2585 0255  
                   u2761 0375                     u2681 0304                     u2825 01E9  
                   u2921 02DC                     u2770 037C                     u2690 0319  
                   u2930 0573                     u2755 0368                     u2940 0579  
                   u2941 0578                     u2950 0583                     u2695 0316  
                   u2951 0582                     u2960 0590                     u2890 027C  
                   u2970 0596                     u2891 027B                     u2971 0595  
                   u2980 05A0                     u2981 059F                     u2990 05A9  
                   u2991 05A8                     _WREN 0CAA                     _adcs 005F  
       __end_of_ADC_CONV 02F3                     _main 0686             ___ftpack@arg 0070  
           ___ftpack@exp 0073                     fsr0h 0005                     fsr1h 0007  
                   fsr0l 0004                     indf0 0000                     indf1 0001  
                   fsr1l 0006                     btemp 007E                     _sqrt 045C  
                   start 0001             ___ftmul@cntr 0038             ___ftmul@sign 0039  
           ___fttol@exp1 0029             ___fttol@lval 0025                    ?_main 0070  
                  _EEADR 0191          __end_of___ftadd 0686                    _CARRY 0018  
                  ?_sqrt 003D          __end_of___ftmul 045C          __end_of___ftsub 0124  
        __end_of___fttol 0392          __end_of___lwdiv 01A9                    _TRISA 008C  
                  _TRISC 008E                    _TXREG 019A                    _adcrl 005D  
                  _adcrx 006B                    _adcry 006D                    _adcrz 005E  
                  _alcor 0062                    _delay 00F6                    _errno 0053  
          ___ftpack@sign 0074                    _start 006F                    sqrt@i 0049  
                  sqrt@q 004A                    sqrt@x 004D                    sqrt@y 003D  
                  sqrt@z 0046                    status 0003                    wtemp0 007E  
           __end_of_main 0800             __end_of_sqrt 0556                   ??_main 0050  
          ___fttol@sign1 0024                   ??_sqrt 0040      USART_SENDDATA@udata 0070  
                 ?_delay 0070                   _ADRESH 009C                   _ADRESL 009B  
                 _EEDATA 0193                   _EECON1 0195                   _EECON2 0196  
                 _APFCON 011D                   _ANSELA 018C                   _ANSELC 018E  
       __end_of___ftpack 0266         __end_of___lbtoft 0141                   _INTCON 000B  
                 _OSCCON 0099                   _SPBRGH 019C                   _SPBRGL 019B  
                 ___ftge 01A9                ??___ftadd 0030                   _diagno 0063  
              ??___ftmul 0030                ??___ftsub 007D                ??___fttol 0020  
              ??___lwdiv 0074                   delay@d 0070                   delay@i 0072  
                 clrloop 00D5    ___ftmul@f3_as_product 0035                ?_ADC_CONV 0070  
                 sqrt@og 0043               ___ftadd@f1 002A               ___ftadd@f2 002D  
             ___ftge@ff1 0070               ___ftge@ff2 0073               ___lbtoft@c 007D  
             ___ftmul@f1 002A               ___ftmul@f2 002D         ??_USART_SENDDATA 0070  
             ___ftsub@f1 003A               ___ftsub@f2 0037               ___fttol@f1 0079  
         __pcstackCOMMON 0070             __pidataBANK0 00C9             __pidataBANK1 00E6  
          __end_of_delay 0109               ??_ADC_CONV 0074                  ??_delay 0072  
             __pbssBANK0 0053               __pmaintext 0686                  ?___ftge 0070  
                _CM2CON0 0113                  _CM2CON1 0114                ?___ftpack 0070  
              ?___lbtoft 002A                  _OSCTUNE 0098          __size_of___ftge 004A  
                ___ftadd 0556                  ___ftmul 0392                  ___ftsub 0109  
                ___fttol 02F3                  ___lwdiv 0163               ??___ftpack 0075  
             ??___lbtoft 002D                _T1CONbits 0018                  _intdata 00A0  
                _ptadcrx 0055                  _ptadcry 0057     end_of_initialization 0161  
                init_ram 00CE                  initloop 00CF                _RCSTAbits 019D  
              _PORTAbits 000C                _PORTCbits 000E        __size_of_ADC_CONV 008D  
            _CM2CON0bits 0113                _TXSTAbits 019E              ___ftmul@exp 0034  
         __end_of___ftge 01F3              _BAUDCONbits 019F      start_initialization 0141  
               ??___ftge 0076              __pdataBANK0 006B              __pdataBANK1 00A0  
      __size_of___ftpack 0073        __size_of___lbtoft 001D            __pcstackBANK0 0020  
       ___lwdiv@dividend 0072                 ?___ftadd 002A                __ptext320 01A9  
              __ptext321 02F3                __ptext322 01F3                __ptext314 045C  
              __ptext323 0163                __ptext315 0109                __ptext324 00DA  
              __ptext316 0124                __ptext325 00F6                __ptext317 0392  
              __ptext326 0000                __ptext318 0556                __ptext319 0266  
               ?___ftmul 002A                 ?___ftsub 0037                 ?___fttol 0079  
               ?___lwdiv 0070  __size_of_USART_SENDDATA 000C                 _ADC_CONV 0266  
       ___lwdiv@quotient 0075           __size_of_delay 0013                 _PIR1bits 0011  
               _PIR2bits 0012               _ADCON0bits 009D               _ADCON1bits 009E  
       __size_of___ftadd 0130         __size_of___ftmul 00CA         __size_of___ftsub 001B  
       __size_of___fttol 009F         __size_of___lwdiv 0046                 ___ftpack 01F3  
               ___lbtoft 0124          ___lwdiv@divisor 0070          ___lwdiv@counter 0077  
          __size_of_main 017A            __size_of_sqrt 00FA                 clear_ram 00D4  
         _USART_SENDDATA 00DA   __end_of_USART_SENDDATA 00E6  
